(dp1
S'outputs'
p2
(lp3
NaNasS'testcases'
p4
(lp5
S'Song(\'Respect\',150).__str__(), "Respect, 150", "testing __str__ with Respect"'
p6
aS'Song(\'Truth Hurts\',183).__str__(), "Truth Hurts, 183", "testing __str__ with Truth Hurts"'
p7
asS'traces'
p8
(lp9
(dp10
S'__return__'
p11
(lp12
(I0
S'myNaN'
p13
tp14
a(I1
g13
tp15
a(I2
g13
tp16
a(I3
g13
tp17
a(I4
g13
tp18
a(I5
g13
tp19
a(I6
g13
tp20
a(I7
g13
tp21
a(I8
g13
tp22
a(I9
Ntp23
a(I10
g13
tp24
a(I11
g13
tp25
a(I12
g13
tp26
a(I13
g13
tp27
a(I14
g13
tp28
a(I15
Ntp29
a(I16
g13
tp30
a(I17
g13
tp31
a(I18
g13
tp32
a(I19
g13
tp33
a(I20
g13
tp34
a(I21
g13
tp35
a(I22
Ntp36
a(I23
g13
tp37
a(I24
g13
tp38
a(I25
g13
tp39
a(I26
g13
tp40
a(I27
g13
tp41
a(I28
g13
tp42
a(I29
Ntp43
a(I30
g13
tp44
a(I31
g13
tp45
a(I32
g13
tp46
a(I33
g13
tp47
a(I34
g13
tp48
a(I35
g13
tp49
a(I36
Ntp50
a(I37
g13
tp51
a(I38
g13
tp52
a(I39
g13
tp53
a(I40
g13
tp54
a(I41
g13
tp55
a(I42
g13
tp56
a(I43
Ntp57
a(I44
g13
tp58
a(I45
g13
tp59
a(I46
g13
tp60
a(I47
g13
tp61
a(I48
g13
tp62
a(I49
g13
tp63
a(I50
Ntp64
a(I51
g13
tp65
a(I52
g13
tp66
a(I53
g13
tp67
a(I54
g13
tp68
a(I55
g13
tp69
a(I56
g13
tp70
a(I57
Ntp71
a(I58
g13
tp72
a(I59
g13
tp73
a(I60
g13
tp74
a(I61
g13
tp75
a(I62
g13
tp76
a(I63
g13
tp77
a(I64
Ntp78
a(I65
g13
tp79
a(I66
g13
tp80
a(I67
g13
tp81
a(I68
g13
tp82
a(I69
g13
tp83
a(I70
g13
tp84
a(I71
Ntp85
a(I72
g13
tp86
a(I73
g13
tp87
a(I74
g13
tp88
a(I75
g13
tp89
a(I76
g13
tp90
a(I77
g13
tp91
a(I78
Ntp92
a(I79
g13
tp93
a(I80
g13
tp94
a(I81
g13
tp95
a(I82
g13
tp96
a(I83
g13
tp97
a(I84
g13
tp98
a(I85
Ntp99
a(I86
g13
tp100
a(I87
g13
tp101
a(I88
g13
tp102
a(I89
g13
tp103
a(I90
g13
tp104
a(I91
g13
tp105
a(I92
Ntp106
a(I93
g13
tp107
a(I94
g13
tp108
a(I95
g13
tp109
a(I96
g13
tp110
a(I97
g13
tp111
a(I98
g13
tp112
a(I99
Ntp113
a(I100
g13
tp114
a(I101
g13
tp115
a(I102
g13
tp116
a(I103
g13
tp117
a(I104
g13
tp118
a(I105
g13
tp119
a(I106
Ntp120
a(I107
g13
tp121
a(I108
g13
tp122
a(I109
g13
tp123
a(I110
g13
tp124
a(I111
g13
tp125
a(I112
g13
tp126
a(I113
Ntp127
a(I114
g13
tp128
a(I115
g13
tp129
a(I116
g13
tp130
a(I117
g13
tp131
a(I118
g13
tp132
a(I119
g13
tp133
a(I120
Ntp134
a(I121
g13
tp135
a(I122
g13
tp136
a(I123
g13
tp137
a(I124
g13
tp138
a(I125
g13
tp139
a(I126
g13
tp140
a(I127
Ntp141
a(I128
g13
tp142
a(I129
g13
tp143
a(I130
g13
tp144
a(I131
g13
tp145
a(I132
g13
tp146
a(I133
g13
tp147
a(I134
Ntp148
a(I135
g13
tp149
a(I136
g13
tp150
a(I137
g13
tp151
a(I138
g13
tp152
a(I139
g13
tp153
a(I140
g13
tp154
a(I141
Ntp155
a(I142
g13
tp156
a(I143
g13
tp157
a(I144
g13
tp158
a(I145
g13
tp159
a(I146
g13
tp160
a(I147
g13
tp161
a(I148
Ntp162
a(I149
g13
tp163
a(I150
g13
tp164
a(I151
g13
tp165
a(I152
g13
tp166
a(I153
g13
tp167
a(I154
g13
tp168
a(I155
Ntp169
a(I156
g13
tp170
a(I157
g13
tp171
a(I158
g13
tp172
a(I159
g13
tp173
a(I160
g13
tp174
a(I161
g13
tp175
a(I162
Ntp176
a(I163
g13
tp177
a(I164
g13
tp178
a(I165
g13
tp179
a(I166
g13
tp180
a(I167
g13
tp181
a(I168
g13
tp182
a(I169
Ntp183
a(I170
g13
tp184
a(I171
g13
tp185
a(I172
g13
tp186
a(I173
g13
tp187
a(I174
g13
tp188
a(I175
g13
tp189
a(I176
Ntp190
a(I177
g13
tp191
a(I178
g13
tp192
a(I179
g13
tp193
a(I180
g13
tp194
a(I181
g13
tp195
a(I182
g13
tp196
a(I183
Ntp197
a(I184
g13
tp198
a(I185
g13
tp199
a(I186
g13
tp200
a(I187
g13
tp201
a(I188
g13
tp202
a(I189
g13
tp203
a(I190
Ntp204
a(I191
g13
tp205
a(I192
g13
tp206
a(I193
g13
tp207
a(I194
g13
tp208
a(I195
g13
tp209
a(I196
g13
tp210
a(I197
Ntp211
a(I198
g13
tp212
a(I199
g13
tp213
a(I200
g13
tp214
a(I201
g13
tp215
a(I202
g13
tp216
a(I203
g13
tp217
a(I204
Ntp218
a(I205
g13
tp219
a(I206
g13
tp220
a(I207
g13
tp221
a(I208
g13
tp222
a(I209
g13
tp223
a(I210
g13
tp224
a(I211
Ntp225
a(I212
g13
tp226
a(I213
g13
tp227
a(I214
g13
tp228
a(I215
g13
tp229
a(I216
g13
tp230
a(I217
g13
tp231
a(I218
Ntp232
a(I219
g13
tp233
a(I220
g13
tp234
a(I221
g13
tp235
a(I222
g13
tp236
a(I223
g13
tp237
a(I224
g13
tp238
a(I225
Ntp239
a(I226
g13
tp240
a(I227
g13
tp241
a(I228
g13
tp242
a(I229
g13
tp243
a(I230
g13
tp244
a(I231
g13
tp245
a(I232
Ntp246
a(I233
g13
tp247
a(I234
g13
tp248
a(I235
g13
tp249
a(I236
g13
tp250
a(I237
g13
tp251
a(I238
g13
tp252
a(I239
Ntp253
a(I240
g13
tp254
a(I241
g13
tp255
a(I242
g13
tp256
a(I243
g13
tp257
a(I244
g13
tp258
a(I245
g13
tp259
a(I246
Ntp260
a(I247
g13
tp261
a(I248
g13
tp262
a(I249
g13
tp263
a(I250
g13
tp264
a(I251
g13
tp265
a(I252
g13
tp266
a(I253
Ntp267
a(I254
g13
tp268
a(I255
g13
tp269
a(I256
g13
tp270
a(I257
g13
tp271
a(I258
g13
tp272
a(I259
g13
tp273
a(I260
Ntp274
a(I261
g13
tp275
a(I262
g13
tp276
a(I263
g13
tp277
a(I264
g13
tp278
a(I265
g13
tp279
a(I266
g13
tp280
a(I267
Ntp281
a(I268
g13
tp282
a(I269
g13
tp283
a(I270
g13
tp284
a(I271
g13
tp285
a(I272
g13
tp286
a(I273
g13
tp287
a(I274
Ntp288
a(I275
g13
tp289
a(I276
g13
tp290
a(I277
g13
tp291
a(I278
g13
tp292
a(I279
g13
tp293
a(I280
g13
tp294
a(I281
Ntp295
a(I282
g13
tp296
a(I283
g13
tp297
a(I284
g13
tp298
a(I285
g13
tp299
a(I286
g13
tp300
a(I287
g13
tp301
a(I288
Ntp302
a(I289
g13
tp303
a(I290
g13
tp304
a(I291
g13
tp305
a(I292
g13
tp306
a(I293
g13
tp307
a(I294
g13
tp308
a(I295
Ntp309
a(I296
g13
tp310
a(I297
g13
tp311
a(I298
g13
tp312
a(I299
g13
tp313
a(I300
g13
tp314
a(I301
g13
tp315
a(I302
Ntp316
a(I303
g13
tp317
a(I304
g13
tp318
a(I305
g13
tp319
a(I306
g13
tp320
a(I307
g13
tp321
a(I308
g13
tp322
a(I309
Ntp323
a(I310
g13
tp324
a(I311
g13
tp325
a(I312
g13
tp326
a(I313
g13
tp327
a(I314
g13
tp328
a(I315
g13
tp329
a(I316
Ntp330
a(I317
g13
tp331
a(I318
g13
tp332
a(I319
g13
tp333
a(I320
g13
tp334
a(I321
g13
tp335
a(I322
g13
tp336
a(I323
Ntp337
a(I324
g13
tp338
a(I325
g13
tp339
a(I326
g13
tp340
a(I327
g13
tp341
a(I328
g13
tp342
a(I329
g13
tp343
a(I330
Ntp344
a(I331
g13
tp345
a(I332
g13
tp346
a(I333
g13
tp347
a(I334
g13
tp348
a(I335
g13
tp349
a(I336
g13
tp350
a(I337
Ntp351
a(I338
g13
tp352
a(I339
g13
tp353
a(I340
g13
tp354
a(I341
g13
tp355
a(I342
g13
tp356
a(I343
g13
tp357
a(I344
Ntp358
a(I345
g13
tp359
a(I346
g13
tp360
a(I347
g13
tp361
a(I348
g13
tp362
a(I349
g13
tp363
a(I350
g13
tp364
a(I351
Ntp365
a(I352
g13
tp366
a(I353
g13
tp367
a(I354
g13
tp368
a(I355
g13
tp369
a(I356
g13
tp370
a(I357
g13
tp371
a(I358
Ntp372
a(I359
g13
tp373
a(I360
g13
tp374
a(I361
g13
tp375
a(I362
g13
tp376
a(I363
g13
tp377
a(I364
g13
tp378
a(I365
Ntp379
a(I366
g13
tp380
a(I367
g13
tp381
a(I368
g13
tp382
a(I369
g13
tp383
a(I370
g13
tp384
a(I371
g13
tp385
a(I372
Ntp386
a(I373
g13
tp387
a(I374
g13
tp388
a(I375
g13
tp389
a(I376
g13
tp390
a(I377
g13
tp391
a(I378
g13
tp392
a(I379
Ntp393
a(I380
g13
tp394
a(I381
g13
tp395
a(I382
g13
tp396
a(I383
g13
tp397
a(I384
g13
tp398
a(I385
g13
tp399
a(I386
Ntp400
a(I387
g13
tp401
a(I388
g13
tp402
a(I389
g13
tp403
a(I390
g13
tp404
a(I391
g13
tp405
a(I392
g13
tp406
a(I393
Ntp407
a(I394
g13
tp408
a(I395
g13
tp409
a(I396
g13
tp410
a(I397
g13
tp411
a(I398
g13
tp412
a(I399
g13
tp413
a(I400
Ntp414
a(I401
g13
tp415
a(I402
g13
tp416
a(I403
g13
tp417
a(I404
g13
tp418
a(I405
g13
tp419
a(I406
g13
tp420
a(I407
Ntp421
a(I408
g13
tp422
a(I409
g13
tp423
a(I410
g13
tp424
a(I411
g13
tp425
a(I412
g13
tp426
a(I413
g13
tp427
a(I414
Ntp428
a(I415
g13
tp429
a(I416
g13
tp430
a(I417
g13
tp431
a(I418
g13
tp432
a(I419
g13
tp433
a(I420
g13
tp434
a(I421
Ntp435
a(I422
g13
tp436
a(I423
g13
tp437
a(I424
g13
tp438
a(I425
g13
tp439
a(I426
g13
tp440
a(I427
g13
tp441
a(I428
Ntp442
a(I429
g13
tp443
a(I430
g13
tp444
a(I431
g13
tp445
a(I432
g13
tp446
a(I433
g13
tp447
a(I434
g13
tp448
a(I435
Ntp449
a(I436
g13
tp450
a(I437
g13
tp451
a(I438
g13
tp452
a(I439
g13
tp453
a(I440
g13
tp454
a(I441
g13
tp455
a(I442
Ntp456
a(I443
g13
tp457
a(I444
g13
tp458
a(I445
g13
tp459
a(I446
g13
tp460
a(I447
g13
tp461
a(I448
g13
tp462
a(I449
Ntp463
a(I450
g13
tp464
a(I451
g13
tp465
a(I452
g13
tp466
a(I453
g13
tp467
a(I454
g13
tp468
a(I455
g13
tp469
a(I456
Ntp470
a(I457
g13
tp471
a(I458
g13
tp472
a(I459
g13
tp473
a(I460
g13
tp474
a(I461
g13
tp475
a(I462
g13
tp476
a(I463
Ntp477
a(I464
g13
tp478
a(I465
g13
tp479
a(I466
g13
tp480
a(I467
g13
tp481
a(I468
g13
tp482
a(I469
g13
tp483
a(I470
Ntp484
a(I471
g13
tp485
a(I472
g13
tp486
a(I473
g13
tp487
a(I474
g13
tp488
a(I475
g13
tp489
a(I476
g13
tp490
a(I477
Ntp491
a(I478
g13
tp492
a(I479
g13
tp493
a(I480
g13
tp494
a(I481
g13
tp495
a(I482
g13
tp496
a(I483
g13
tp497
a(I484
Ntp498
a(I485
g13
tp499
a(I486
g13
tp500
a(I487
g13
tp501
a(I488
g13
tp502
a(I489
g13
tp503
a(I490
g13
tp504
a(I491
Ntp505
a(I492
g13
tp506
a(I493
g13
tp507
a(I494
g13
tp508
a(I495
g13
tp509
a(I496
g13
tp510
a(I497
g13
tp511
a(I498
Ntp512
a(I499
g13
tp513
a(I500
g13
tp514
asS'__lineNo__'
p515
(lp516
(I0
I1
tp517
a(I1
I2
tp518
a(I2
I3
tp519
a(I3
I4
tp520
a(I4
I5
tp521
a(I5
I14
tp522
a(I6
I6
tp523
a(I7
I7
tp524
a(I8
I8
tp525
a(I9
I8
tp526
a(I10
I9
tp527
a(I11
I10
tp528
a(I12
I6
tp529
a(I13
I7
tp530
a(I14
I8
tp531
a(I15
I8
tp532
a(I16
I11
tp533
a(I17
I9
tp534
a(I18
I10
tp535
a(I19
I6
tp536
a(I20
I7
tp537
a(I21
I8
tp538
a(I22
I8
tp539
a(I23
I11
tp540
a(I24
I9
tp541
a(I25
I10
tp542
a(I26
I6
tp543
a(I27
I7
tp544
a(I28
I8
tp545
a(I29
I8
tp546
a(I30
I11
tp547
a(I31
I9
tp548
a(I32
I10
tp549
a(I33
I6
tp550
a(I34
I7
tp551
a(I35
I8
tp552
a(I36
I8
tp553
a(I37
I11
tp554
a(I38
I9
tp555
a(I39
I10
tp556
a(I40
I6
tp557
a(I41
I7
tp558
a(I42
I8
tp559
a(I43
I8
tp560
a(I44
I11
tp561
a(I45
I9
tp562
a(I46
I10
tp563
a(I47
I6
tp564
a(I48
I7
tp565
a(I49
I8
tp566
a(I50
I8
tp567
a(I51
I11
tp568
a(I52
I9
tp569
a(I53
I10
tp570
a(I54
I6
tp571
a(I55
I7
tp572
a(I56
I8
tp573
a(I57
I8
tp574
a(I58
I11
tp575
a(I59
I9
tp576
a(I60
I10
tp577
a(I61
I6
tp578
a(I62
I7
tp579
a(I63
I8
tp580
a(I64
I8
tp581
a(I65
I11
tp582
a(I66
I9
tp583
a(I67
I10
tp584
a(I68
I6
tp585
a(I69
I7
tp586
a(I70
I8
tp587
a(I71
I8
tp588
a(I72
I11
tp589
a(I73
I9
tp590
a(I74
I10
tp591
a(I75
I6
tp592
a(I76
I7
tp593
a(I77
I8
tp594
a(I78
I8
tp595
a(I79
I11
tp596
a(I80
I9
tp597
a(I81
I10
tp598
a(I82
I6
tp599
a(I83
I7
tp600
a(I84
I8
tp601
a(I85
I8
tp602
a(I86
I11
tp603
a(I87
I9
tp604
a(I88
I10
tp605
a(I89
I6
tp606
a(I90
I7
tp607
a(I91
I8
tp608
a(I92
I8
tp609
a(I93
I11
tp610
a(I94
I9
tp611
a(I95
I10
tp612
a(I96
I6
tp613
a(I97
I7
tp614
a(I98
I8
tp615
a(I99
I8
tp616
a(I100
I11
tp617
a(I101
I9
tp618
a(I102
I10
tp619
a(I103
I6
tp620
a(I104
I7
tp621
a(I105
I8
tp622
a(I106
I8
tp623
a(I107
I11
tp624
a(I108
I9
tp625
a(I109
I10
tp626
a(I110
I6
tp627
a(I111
I7
tp628
a(I112
I8
tp629
a(I113
I8
tp630
a(I114
I11
tp631
a(I115
I9
tp632
a(I116
I10
tp633
a(I117
I6
tp634
a(I118
I7
tp635
a(I119
I8
tp636
a(I120
I8
tp637
a(I121
I11
tp638
a(I122
I9
tp639
a(I123
I10
tp640
a(I124
I6
tp641
a(I125
I7
tp642
a(I126
I8
tp643
a(I127
I8
tp644
a(I128
I11
tp645
a(I129
I9
tp646
a(I130
I10
tp647
a(I131
I6
tp648
a(I132
I7
tp649
a(I133
I8
tp650
a(I134
I8
tp651
a(I135
I11
tp652
a(I136
I9
tp653
a(I137
I10
tp654
a(I138
I6
tp655
a(I139
I7
tp656
a(I140
I8
tp657
a(I141
I8
tp658
a(I142
I11
tp659
a(I143
I9
tp660
a(I144
I10
tp661
a(I145
I6
tp662
a(I146
I7
tp663
a(I147
I8
tp664
a(I148
I8
tp665
a(I149
I11
tp666
a(I150
I9
tp667
a(I151
I10
tp668
a(I152
I6
tp669
a(I153
I7
tp670
a(I154
I8
tp671
a(I155
I8
tp672
a(I156
I11
tp673
a(I157
I9
tp674
a(I158
I10
tp675
a(I159
I6
tp676
a(I160
I7
tp677
a(I161
I8
tp678
a(I162
I8
tp679
a(I163
I11
tp680
a(I164
I9
tp681
a(I165
I10
tp682
a(I166
I6
tp683
a(I167
I7
tp684
a(I168
I8
tp685
a(I169
I8
tp686
a(I170
I11
tp687
a(I171
I9
tp688
a(I172
I10
tp689
a(I173
I6
tp690
a(I174
I7
tp691
a(I175
I8
tp692
a(I176
I8
tp693
a(I177
I11
tp694
a(I178
I9
tp695
a(I179
I10
tp696
a(I180
I6
tp697
a(I181
I7
tp698
a(I182
I8
tp699
a(I183
I8
tp700
a(I184
I11
tp701
a(I185
I9
tp702
a(I186
I10
tp703
a(I187
I6
tp704
a(I188
I7
tp705
a(I189
I8
tp706
a(I190
I8
tp707
a(I191
I11
tp708
a(I192
I9
tp709
a(I193
I10
tp710
a(I194
I6
tp711
a(I195
I7
tp712
a(I196
I8
tp713
a(I197
I8
tp714
a(I198
I11
tp715
a(I199
I9
tp716
a(I200
I10
tp717
a(I201
I6
tp718
a(I202
I7
tp719
a(I203
I8
tp720
a(I204
I8
tp721
a(I205
I11
tp722
a(I206
I9
tp723
a(I207
I10
tp724
a(I208
I6
tp725
a(I209
I7
tp726
a(I210
I8
tp727
a(I211
I8
tp728
a(I212
I11
tp729
a(I213
I9
tp730
a(I214
I10
tp731
a(I215
I6
tp732
a(I216
I7
tp733
a(I217
I8
tp734
a(I218
I8
tp735
a(I219
I11
tp736
a(I220
I9
tp737
a(I221
I10
tp738
a(I222
I6
tp739
a(I223
I7
tp740
a(I224
I8
tp741
a(I225
I8
tp742
a(I226
I11
tp743
a(I227
I9
tp744
a(I228
I10
tp745
a(I229
I6
tp746
a(I230
I7
tp747
a(I231
I8
tp748
a(I232
I8
tp749
a(I233
I11
tp750
a(I234
I9
tp751
a(I235
I10
tp752
a(I236
I6
tp753
a(I237
I7
tp754
a(I238
I8
tp755
a(I239
I8
tp756
a(I240
I11
tp757
a(I241
I9
tp758
a(I242
I10
tp759
a(I243
I6
tp760
a(I244
I7
tp761
a(I245
I8
tp762
a(I246
I8
tp763
a(I247
I11
tp764
a(I248
I9
tp765
a(I249
I10
tp766
a(I250
I6
tp767
a(I251
I7
tp768
a(I252
I8
tp769
a(I253
I8
tp770
a(I254
I11
tp771
a(I255
I9
tp772
a(I256
I10
tp773
a(I257
I6
tp774
a(I258
I7
tp775
a(I259
I8
tp776
a(I260
I8
tp777
a(I261
I11
tp778
a(I262
I9
tp779
a(I263
I10
tp780
a(I264
I6
tp781
a(I265
I7
tp782
a(I266
I8
tp783
a(I267
I8
tp784
a(I268
I11
tp785
a(I269
I9
tp786
a(I270
I10
tp787
a(I271
I6
tp788
a(I272
I7
tp789
a(I273
I8
tp790
a(I274
I8
tp791
a(I275
I11
tp792
a(I276
I9
tp793
a(I277
I10
tp794
a(I278
I6
tp795
a(I279
I7
tp796
a(I280
I8
tp797
a(I281
I8
tp798
a(I282
I11
tp799
a(I283
I9
tp800
a(I284
I10
tp801
a(I285
I6
tp802
a(I286
I7
tp803
a(I287
I8
tp804
a(I288
I8
tp805
a(I289
I11
tp806
a(I290
I9
tp807
a(I291
I10
tp808
a(I292
I6
tp809
a(I293
I7
tp810
a(I294
I8
tp811
a(I295
I8
tp812
a(I296
I11
tp813
a(I297
I9
tp814
a(I298
I10
tp815
a(I299
I6
tp816
a(I300
I7
tp817
a(I301
I8
tp818
a(I302
I8
tp819
a(I303
I11
tp820
a(I304
I9
tp821
a(I305
I10
tp822
a(I306
I6
tp823
a(I307
I7
tp824
a(I308
I8
tp825
a(I309
I8
tp826
a(I310
I11
tp827
a(I311
I9
tp828
a(I312
I10
tp829
a(I313
I6
tp830
a(I314
I7
tp831
a(I315
I8
tp832
a(I316
I8
tp833
a(I317
I11
tp834
a(I318
I9
tp835
a(I319
I10
tp836
a(I320
I6
tp837
a(I321
I7
tp838
a(I322
I8
tp839
a(I323
I8
tp840
a(I324
I11
tp841
a(I325
I9
tp842
a(I326
I10
tp843
a(I327
I6
tp844
a(I328
I7
tp845
a(I329
I8
tp846
a(I330
I8
tp847
a(I331
I11
tp848
a(I332
I9
tp849
a(I333
I10
tp850
a(I334
I6
tp851
a(I335
I7
tp852
a(I336
I8
tp853
a(I337
I8
tp854
a(I338
I11
tp855
a(I339
I9
tp856
a(I340
I10
tp857
a(I341
I6
tp858
a(I342
I7
tp859
a(I343
I8
tp860
a(I344
I8
tp861
a(I345
I11
tp862
a(I346
I9
tp863
a(I347
I10
tp864
a(I348
I6
tp865
a(I349
I7
tp866
a(I350
I8
tp867
a(I351
I8
tp868
a(I352
I11
tp869
a(I353
I9
tp870
a(I354
I10
tp871
a(I355
I6
tp872
a(I356
I7
tp873
a(I357
I8
tp874
a(I358
I8
tp875
a(I359
I11
tp876
a(I360
I9
tp877
a(I361
I10
tp878
a(I362
I6
tp879
a(I363
I7
tp880
a(I364
I8
tp881
a(I365
I8
tp882
a(I366
I11
tp883
a(I367
I9
tp884
a(I368
I10
tp885
a(I369
I6
tp886
a(I370
I7
tp887
a(I371
I8
tp888
a(I372
I8
tp889
a(I373
I11
tp890
a(I374
I9
tp891
a(I375
I10
tp892
a(I376
I6
tp893
a(I377
I7
tp894
a(I378
I8
tp895
a(I379
I8
tp896
a(I380
I11
tp897
a(I381
I9
tp898
a(I382
I10
tp899
a(I383
I6
tp900
a(I384
I7
tp901
a(I385
I8
tp902
a(I386
I8
tp903
a(I387
I11
tp904
a(I388
I9
tp905
a(I389
I10
tp906
a(I390
I6
tp907
a(I391
I7
tp908
a(I392
I8
tp909
a(I393
I8
tp910
a(I394
I11
tp911
a(I395
I9
tp912
a(I396
I10
tp913
a(I397
I6
tp914
a(I398
I7
tp915
a(I399
I8
tp916
a(I400
I8
tp917
a(I401
I11
tp918
a(I402
I9
tp919
a(I403
I10
tp920
a(I404
I6
tp921
a(I405
I7
tp922
a(I406
I8
tp923
a(I407
I8
tp924
a(I408
I11
tp925
a(I409
I9
tp926
a(I410
I10
tp927
a(I411
I6
tp928
a(I412
I7
tp929
a(I413
I8
tp930
a(I414
I8
tp931
a(I415
I11
tp932
a(I416
I9
tp933
a(I417
I10
tp934
a(I418
I6
tp935
a(I419
I7
tp936
a(I420
I8
tp937
a(I421
I8
tp938
a(I422
I11
tp939
a(I423
I9
tp940
a(I424
I10
tp941
a(I425
I6
tp942
a(I426
I7
tp943
a(I427
I8
tp944
a(I428
I8
tp945
a(I429
I11
tp946
a(I430
I9
tp947
a(I431
I10
tp948
a(I432
I6
tp949
a(I433
I7
tp950
a(I434
I8
tp951
a(I435
I8
tp952
a(I436
I11
tp953
a(I437
I9
tp954
a(I438
I10
tp955
a(I439
I6
tp956
a(I440
I7
tp957
a(I441
I8
tp958
a(I442
I8
tp959
a(I443
I11
tp960
a(I444
I9
tp961
a(I445
I10
tp962
a(I446
I6
tp963
a(I447
I7
tp964
a(I448
I8
tp965
a(I449
I8
tp966
a(I450
I11
tp967
a(I451
I9
tp968
a(I452
I10
tp969
a(I453
I6
tp970
a(I454
I7
tp971
a(I455
I8
tp972
a(I456
I8
tp973
a(I457
I11
tp974
a(I458
I9
tp975
a(I459
I10
tp976
a(I460
I6
tp977
a(I461
I7
tp978
a(I462
I8
tp979
a(I463
I8
tp980
a(I464
I11
tp981
a(I465
I9
tp982
a(I466
I10
tp983
a(I467
I6
tp984
a(I468
I7
tp985
a(I469
I8
tp986
a(I470
I8
tp987
a(I471
I11
tp988
a(I472
I9
tp989
a(I473
I10
tp990
a(I474
I6
tp991
a(I475
I7
tp992
a(I476
I8
tp993
a(I477
I8
tp994
a(I478
I11
tp995
a(I479
I9
tp996
a(I480
I10
tp997
a(I481
I6
tp998
a(I482
I7
tp999
a(I483
I8
tp1000
a(I484
I8
tp1001
a(I485
I11
tp1002
a(I486
I9
tp1003
a(I487
I10
tp1004
a(I488
I6
tp1005
a(I489
I7
tp1006
a(I490
I8
tp1007
a(I491
I8
tp1008
a(I492
I11
tp1009
a(I493
I9
tp1010
a(I494
I10
tp1011
a(I495
I6
tp1012
a(I496
I7
tp1013
a(I497
I8
tp1014
a(I498
I8
tp1015
a(I499
I11
tp1016
a(I500
I-1
tp1017
asS'len'
p1018
(lp1019
(I0
g13
tp1020
a(I1
g13
tp1021
a(I2
g13
tp1022
a(I3
g13
tp1023
a(I4
g13
tp1024
a(I5
g13
tp1025
a(I6
I150
tp1026
a(I7
I150
tp1027
a(I8
I150
tp1028
a(I9
I150
tp1029
a(I10
g13
tp1030
a(I11
g13
tp1031
a(I12
I150
tp1032
a(I13
I150
tp1033
a(I14
I150
tp1034
a(I15
I150
tp1035
a(I16
g13
tp1036
a(I17
g13
tp1037
a(I18
g13
tp1038
a(I19
I150
tp1039
a(I20
I150
tp1040
a(I21
I150
tp1041
a(I22
I150
tp1042
a(I23
g13
tp1043
a(I24
g13
tp1044
a(I25
g13
tp1045
a(I26
I150
tp1046
a(I27
I150
tp1047
a(I28
I150
tp1048
a(I29
I150
tp1049
a(I30
g13
tp1050
a(I31
g13
tp1051
a(I32
g13
tp1052
a(I33
I150
tp1053
a(I34
I150
tp1054
a(I35
I150
tp1055
a(I36
I150
tp1056
a(I37
g13
tp1057
a(I38
g13
tp1058
a(I39
g13
tp1059
a(I40
I150
tp1060
a(I41
I150
tp1061
a(I42
I150
tp1062
a(I43
I150
tp1063
a(I44
g13
tp1064
a(I45
g13
tp1065
a(I46
g13
tp1066
a(I47
I150
tp1067
a(I48
I150
tp1068
a(I49
I150
tp1069
a(I50
I150
tp1070
a(I51
g13
tp1071
a(I52
g13
tp1072
a(I53
g13
tp1073
a(I54
I150
tp1074
a(I55
I150
tp1075
a(I56
I150
tp1076
a(I57
I150
tp1077
a(I58
g13
tp1078
a(I59
g13
tp1079
a(I60
g13
tp1080
a(I61
I150
tp1081
a(I62
I150
tp1082
a(I63
I150
tp1083
a(I64
I150
tp1084
a(I65
g13
tp1085
a(I66
g13
tp1086
a(I67
g13
tp1087
a(I68
I150
tp1088
a(I69
I150
tp1089
a(I70
I150
tp1090
a(I71
I150
tp1091
a(I72
g13
tp1092
a(I73
g13
tp1093
a(I74
g13
tp1094
a(I75
I150
tp1095
a(I76
I150
tp1096
a(I77
I150
tp1097
a(I78
I150
tp1098
a(I79
g13
tp1099
a(I80
g13
tp1100
a(I81
g13
tp1101
a(I82
I150
tp1102
a(I83
I150
tp1103
a(I84
I150
tp1104
a(I85
I150
tp1105
a(I86
g13
tp1106
a(I87
g13
tp1107
a(I88
g13
tp1108
a(I89
I150
tp1109
a(I90
I150
tp1110
a(I91
I150
tp1111
a(I92
I150
tp1112
a(I93
g13
tp1113
a(I94
g13
tp1114
a(I95
g13
tp1115
a(I96
I150
tp1116
a(I97
I150
tp1117
a(I98
I150
tp1118
a(I99
I150
tp1119
a(I100
g13
tp1120
a(I101
g13
tp1121
a(I102
g13
tp1122
a(I103
I150
tp1123
a(I104
I150
tp1124
a(I105
I150
tp1125
a(I106
I150
tp1126
a(I107
g13
tp1127
a(I108
g13
tp1128
a(I109
g13
tp1129
a(I110
I150
tp1130
a(I111
I150
tp1131
a(I112
I150
tp1132
a(I113
I150
tp1133
a(I114
g13
tp1134
a(I115
g13
tp1135
a(I116
g13
tp1136
a(I117
I150
tp1137
a(I118
I150
tp1138
a(I119
I150
tp1139
a(I120
I150
tp1140
a(I121
g13
tp1141
a(I122
g13
tp1142
a(I123
g13
tp1143
a(I124
I150
tp1144
a(I125
I150
tp1145
a(I126
I150
tp1146
a(I127
I150
tp1147
a(I128
g13
tp1148
a(I129
g13
tp1149
a(I130
g13
tp1150
a(I131
I150
tp1151
a(I132
I150
tp1152
a(I133
I150
tp1153
a(I134
I150
tp1154
a(I135
g13
tp1155
a(I136
g13
tp1156
a(I137
g13
tp1157
a(I138
I150
tp1158
a(I139
I150
tp1159
a(I140
I150
tp1160
a(I141
I150
tp1161
a(I142
g13
tp1162
a(I143
g13
tp1163
a(I144
g13
tp1164
a(I145
I150
tp1165
a(I146
I150
tp1166
a(I147
I150
tp1167
a(I148
I150
tp1168
a(I149
g13
tp1169
a(I150
g13
tp1170
a(I151
g13
tp1171
a(I152
I150
tp1172
a(I153
I150
tp1173
a(I154
I150
tp1174
a(I155
I150
tp1175
a(I156
g13
tp1176
a(I157
g13
tp1177
a(I158
g13
tp1178
a(I159
I150
tp1179
a(I160
I150
tp1180
a(I161
I150
tp1181
a(I162
I150
tp1182
a(I163
g13
tp1183
a(I164
g13
tp1184
a(I165
g13
tp1185
a(I166
I150
tp1186
a(I167
I150
tp1187
a(I168
I150
tp1188
a(I169
I150
tp1189
a(I170
g13
tp1190
a(I171
g13
tp1191
a(I172
g13
tp1192
a(I173
I150
tp1193
a(I174
I150
tp1194
a(I175
I150
tp1195
a(I176
I150
tp1196
a(I177
g13
tp1197
a(I178
g13
tp1198
a(I179
g13
tp1199
a(I180
I150
tp1200
a(I181
I150
tp1201
a(I182
I150
tp1202
a(I183
I150
tp1203
a(I184
g13
tp1204
a(I185
g13
tp1205
a(I186
g13
tp1206
a(I187
I150
tp1207
a(I188
I150
tp1208
a(I189
I150
tp1209
a(I190
I150
tp1210
a(I191
g13
tp1211
a(I192
g13
tp1212
a(I193
g13
tp1213
a(I194
I150
tp1214
a(I195
I150
tp1215
a(I196
I150
tp1216
a(I197
I150
tp1217
a(I198
g13
tp1218
a(I199
g13
tp1219
a(I200
g13
tp1220
a(I201
I150
tp1221
a(I202
I150
tp1222
a(I203
I150
tp1223
a(I204
I150
tp1224
a(I205
g13
tp1225
a(I206
g13
tp1226
a(I207
g13
tp1227
a(I208
I150
tp1228
a(I209
I150
tp1229
a(I210
I150
tp1230
a(I211
I150
tp1231
a(I212
g13
tp1232
a(I213
g13
tp1233
a(I214
g13
tp1234
a(I215
I150
tp1235
a(I216
I150
tp1236
a(I217
I150
tp1237
a(I218
I150
tp1238
a(I219
g13
tp1239
a(I220
g13
tp1240
a(I221
g13
tp1241
a(I222
I150
tp1242
a(I223
I150
tp1243
a(I224
I150
tp1244
a(I225
I150
tp1245
a(I226
g13
tp1246
a(I227
g13
tp1247
a(I228
g13
tp1248
a(I229
I150
tp1249
a(I230
I150
tp1250
a(I231
I150
tp1251
a(I232
I150
tp1252
a(I233
g13
tp1253
a(I234
g13
tp1254
a(I235
g13
tp1255
a(I236
I150
tp1256
a(I237
I150
tp1257
a(I238
I150
tp1258
a(I239
I150
tp1259
a(I240
g13
tp1260
a(I241
g13
tp1261
a(I242
g13
tp1262
a(I243
I150
tp1263
a(I244
I150
tp1264
a(I245
I150
tp1265
a(I246
I150
tp1266
a(I247
g13
tp1267
a(I248
g13
tp1268
a(I249
g13
tp1269
a(I250
I150
tp1270
a(I251
I150
tp1271
a(I252
I150
tp1272
a(I253
I150
tp1273
a(I254
g13
tp1274
a(I255
g13
tp1275
a(I256
g13
tp1276
a(I257
I150
tp1277
a(I258
I150
tp1278
a(I259
I150
tp1279
a(I260
I150
tp1280
a(I261
g13
tp1281
a(I262
g13
tp1282
a(I263
g13
tp1283
a(I264
I150
tp1284
a(I265
I150
tp1285
a(I266
I150
tp1286
a(I267
I150
tp1287
a(I268
g13
tp1288
a(I269
g13
tp1289
a(I270
g13
tp1290
a(I271
I150
tp1291
a(I272
I150
tp1292
a(I273
I150
tp1293
a(I274
I150
tp1294
a(I275
g13
tp1295
a(I276
g13
tp1296
a(I277
g13
tp1297
a(I278
I150
tp1298
a(I279
I150
tp1299
a(I280
I150
tp1300
a(I281
I150
tp1301
a(I282
g13
tp1302
a(I283
g13
tp1303
a(I284
g13
tp1304
a(I285
I150
tp1305
a(I286
I150
tp1306
a(I287
I150
tp1307
a(I288
I150
tp1308
a(I289
g13
tp1309
a(I290
g13
tp1310
a(I291
g13
tp1311
a(I292
I150
tp1312
a(I293
I150
tp1313
a(I294
I150
tp1314
a(I295
I150
tp1315
a(I296
g13
tp1316
a(I297
g13
tp1317
a(I298
g13
tp1318
a(I299
I150
tp1319
a(I300
I150
tp1320
a(I301
I150
tp1321
a(I302
I150
tp1322
a(I303
g13
tp1323
a(I304
g13
tp1324
a(I305
g13
tp1325
a(I306
I150
tp1326
a(I307
I150
tp1327
a(I308
I150
tp1328
a(I309
I150
tp1329
a(I310
g13
tp1330
a(I311
g13
tp1331
a(I312
g13
tp1332
a(I313
I150
tp1333
a(I314
I150
tp1334
a(I315
I150
tp1335
a(I316
I150
tp1336
a(I317
g13
tp1337
a(I318
g13
tp1338
a(I319
g13
tp1339
a(I320
I150
tp1340
a(I321
I150
tp1341
a(I322
I150
tp1342
a(I323
I150
tp1343
a(I324
g13
tp1344
a(I325
g13
tp1345
a(I326
g13
tp1346
a(I327
I150
tp1347
a(I328
I150
tp1348
a(I329
I150
tp1349
a(I330
I150
tp1350
a(I331
g13
tp1351
a(I332
g13
tp1352
a(I333
g13
tp1353
a(I334
I150
tp1354
a(I335
I150
tp1355
a(I336
I150
tp1356
a(I337
I150
tp1357
a(I338
g13
tp1358
a(I339
g13
tp1359
a(I340
g13
tp1360
a(I341
I150
tp1361
a(I342
I150
tp1362
a(I343
I150
tp1363
a(I344
I150
tp1364
a(I345
g13
tp1365
a(I346
g13
tp1366
a(I347
g13
tp1367
a(I348
I150
tp1368
a(I349
I150
tp1369
a(I350
I150
tp1370
a(I351
I150
tp1371
a(I352
g13
tp1372
a(I353
g13
tp1373
a(I354
g13
tp1374
a(I355
I150
tp1375
a(I356
I150
tp1376
a(I357
I150
tp1377
a(I358
I150
tp1378
a(I359
g13
tp1379
a(I360
g13
tp1380
a(I361
g13
tp1381
a(I362
I150
tp1382
a(I363
I150
tp1383
a(I364
I150
tp1384
a(I365
I150
tp1385
a(I366
g13
tp1386
a(I367
g13
tp1387
a(I368
g13
tp1388
a(I369
I150
tp1389
a(I370
I150
tp1390
a(I371
I150
tp1391
a(I372
I150
tp1392
a(I373
g13
tp1393
a(I374
g13
tp1394
a(I375
g13
tp1395
a(I376
I150
tp1396
a(I377
I150
tp1397
a(I378
I150
tp1398
a(I379
I150
tp1399
a(I380
g13
tp1400
a(I381
g13
tp1401
a(I382
g13
tp1402
a(I383
I150
tp1403
a(I384
I150
tp1404
a(I385
I150
tp1405
a(I386
I150
tp1406
a(I387
g13
tp1407
a(I388
g13
tp1408
a(I389
g13
tp1409
a(I390
I150
tp1410
a(I391
I150
tp1411
a(I392
I150
tp1412
a(I393
I150
tp1413
a(I394
g13
tp1414
a(I395
g13
tp1415
a(I396
g13
tp1416
a(I397
I150
tp1417
a(I398
I150
tp1418
a(I399
I150
tp1419
a(I400
I150
tp1420
a(I401
g13
tp1421
a(I402
g13
tp1422
a(I403
g13
tp1423
a(I404
I150
tp1424
a(I405
I150
tp1425
a(I406
I150
tp1426
a(I407
I150
tp1427
a(I408
g13
tp1428
a(I409
g13
tp1429
a(I410
g13
tp1430
a(I411
I150
tp1431
a(I412
I150
tp1432
a(I413
I150
tp1433
a(I414
I150
tp1434
a(I415
g13
tp1435
a(I416
g13
tp1436
a(I417
g13
tp1437
a(I418
I150
tp1438
a(I419
I150
tp1439
a(I420
I150
tp1440
a(I421
I150
tp1441
a(I422
g13
tp1442
a(I423
g13
tp1443
a(I424
g13
tp1444
a(I425
I150
tp1445
a(I426
I150
tp1446
a(I427
I150
tp1447
a(I428
I150
tp1448
a(I429
g13
tp1449
a(I430
g13
tp1450
a(I431
g13
tp1451
a(I432
I150
tp1452
a(I433
I150
tp1453
a(I434
I150
tp1454
a(I435
I150
tp1455
a(I436
g13
tp1456
a(I437
g13
tp1457
a(I438
g13
tp1458
a(I439
I150
tp1459
a(I440
I150
tp1460
a(I441
I150
tp1461
a(I442
I150
tp1462
a(I443
g13
tp1463
a(I444
g13
tp1464
a(I445
g13
tp1465
a(I446
I150
tp1466
a(I447
I150
tp1467
a(I448
I150
tp1468
a(I449
I150
tp1469
a(I450
g13
tp1470
a(I451
g13
tp1471
a(I452
g13
tp1472
a(I453
I150
tp1473
a(I454
I150
tp1474
a(I455
I150
tp1475
a(I456
I150
tp1476
a(I457
g13
tp1477
a(I458
g13
tp1478
a(I459
g13
tp1479
a(I460
I150
tp1480
a(I461
I150
tp1481
a(I462
I150
tp1482
a(I463
I150
tp1483
a(I464
g13
tp1484
a(I465
g13
tp1485
a(I466
g13
tp1486
a(I467
I150
tp1487
a(I468
I150
tp1488
a(I469
I150
tp1489
a(I470
I150
tp1490
a(I471
g13
tp1491
a(I472
g13
tp1492
a(I473
g13
tp1493
a(I474
I150
tp1494
a(I475
I150
tp1495
a(I476
I150
tp1496
a(I477
I150
tp1497
a(I478
g13
tp1498
a(I479
g13
tp1499
a(I480
g13
tp1500
a(I481
I150
tp1501
a(I482
I150
tp1502
a(I483
I150
tp1503
a(I484
I150
tp1504
a(I485
g13
tp1505
a(I486
g13
tp1506
a(I487
g13
tp1507
a(I488
I150
tp1508
a(I489
I150
tp1509
a(I490
I150
tp1510
a(I491
I150
tp1511
a(I492
g13
tp1512
a(I493
g13
tp1513
a(I494
g13
tp1514
a(I495
I150
tp1515
a(I496
I150
tp1516
a(I497
I150
tp1517
a(I498
I150
tp1518
a(I499
g13
tp1519
a(I500
g13
tp1520
asS'title'
p1521
(lp1522
(I0
g13
tp1523
a(I1
g13
tp1524
a(I2
g13
tp1525
a(I3
g13
tp1526
a(I4
g13
tp1527
a(I5
g13
tp1528
a(I6
VRespect
tp1529
a(I7
VRespect
tp1530
a(I8
VRespect
tp1531
a(I9
VRespect
tp1532
a(I10
g13
tp1533
a(I11
g13
tp1534
a(I12
VRespect
tp1535
a(I13
VRespect
tp1536
a(I14
VRespect
tp1537
a(I15
VRespect
tp1538
a(I16
g13
tp1539
a(I17
g13
tp1540
a(I18
g13
tp1541
a(I19
VRespect
tp1542
a(I20
VRespect
tp1543
a(I21
VRespect
tp1544
a(I22
VRespect
tp1545
a(I23
g13
tp1546
a(I24
g13
tp1547
a(I25
g13
tp1548
a(I26
VRespect
tp1549
a(I27
VRespect
tp1550
a(I28
VRespect
tp1551
a(I29
VRespect
tp1552
a(I30
g13
tp1553
a(I31
g13
tp1554
a(I32
g13
tp1555
a(I33
VRespect
tp1556
a(I34
VRespect
tp1557
a(I35
VRespect
tp1558
a(I36
VRespect
tp1559
a(I37
g13
tp1560
a(I38
g13
tp1561
a(I39
g13
tp1562
a(I40
VRespect
tp1563
a(I41
VRespect
tp1564
a(I42
VRespect
tp1565
a(I43
VRespect
tp1566
a(I44
g13
tp1567
a(I45
g13
tp1568
a(I46
g13
tp1569
a(I47
VRespect
tp1570
a(I48
VRespect
tp1571
a(I49
VRespect
tp1572
a(I50
VRespect
tp1573
a(I51
g13
tp1574
a(I52
g13
tp1575
a(I53
g13
tp1576
a(I54
VRespect
tp1577
a(I55
VRespect
tp1578
a(I56
VRespect
tp1579
a(I57
VRespect
tp1580
a(I58
g13
tp1581
a(I59
g13
tp1582
a(I60
g13
tp1583
a(I61
VRespect
tp1584
a(I62
VRespect
tp1585
a(I63
VRespect
tp1586
a(I64
VRespect
tp1587
a(I65
g13
tp1588
a(I66
g13
tp1589
a(I67
g13
tp1590
a(I68
VRespect
tp1591
a(I69
VRespect
tp1592
a(I70
VRespect
tp1593
a(I71
VRespect
tp1594
a(I72
g13
tp1595
a(I73
g13
tp1596
a(I74
g13
tp1597
a(I75
VRespect
tp1598
a(I76
VRespect
tp1599
a(I77
VRespect
tp1600
a(I78
VRespect
tp1601
a(I79
g13
tp1602
a(I80
g13
tp1603
a(I81
g13
tp1604
a(I82
VRespect
tp1605
a(I83
VRespect
tp1606
a(I84
VRespect
tp1607
a(I85
VRespect
tp1608
a(I86
g13
tp1609
a(I87
g13
tp1610
a(I88
g13
tp1611
a(I89
VRespect
tp1612
a(I90
VRespect
tp1613
a(I91
VRespect
tp1614
a(I92
VRespect
tp1615
a(I93
g13
tp1616
a(I94
g13
tp1617
a(I95
g13
tp1618
a(I96
VRespect
tp1619
a(I97
VRespect
tp1620
a(I98
VRespect
tp1621
a(I99
VRespect
tp1622
a(I100
g13
tp1623
a(I101
g13
tp1624
a(I102
g13
tp1625
a(I103
VRespect
tp1626
a(I104
VRespect
tp1627
a(I105
VRespect
tp1628
a(I106
VRespect
tp1629
a(I107
g13
tp1630
a(I108
g13
tp1631
a(I109
g13
tp1632
a(I110
VRespect
tp1633
a(I111
VRespect
tp1634
a(I112
VRespect
tp1635
a(I113
VRespect
tp1636
a(I114
g13
tp1637
a(I115
g13
tp1638
a(I116
g13
tp1639
a(I117
VRespect
tp1640
a(I118
VRespect
tp1641
a(I119
VRespect
tp1642
a(I120
VRespect
tp1643
a(I121
g13
tp1644
a(I122
g13
tp1645
a(I123
g13
tp1646
a(I124
VRespect
tp1647
a(I125
VRespect
tp1648
a(I126
VRespect
tp1649
a(I127
VRespect
tp1650
a(I128
g13
tp1651
a(I129
g13
tp1652
a(I130
g13
tp1653
a(I131
VRespect
tp1654
a(I132
VRespect
tp1655
a(I133
VRespect
tp1656
a(I134
VRespect
tp1657
a(I135
g13
tp1658
a(I136
g13
tp1659
a(I137
g13
tp1660
a(I138
VRespect
tp1661
a(I139
VRespect
tp1662
a(I140
VRespect
tp1663
a(I141
VRespect
tp1664
a(I142
g13
tp1665
a(I143
g13
tp1666
a(I144
g13
tp1667
a(I145
VRespect
tp1668
a(I146
VRespect
tp1669
a(I147
VRespect
tp1670
a(I148
VRespect
tp1671
a(I149
g13
tp1672
a(I150
g13
tp1673
a(I151
g13
tp1674
a(I152
VRespect
tp1675
a(I153
VRespect
tp1676
a(I154
VRespect
tp1677
a(I155
VRespect
tp1678
a(I156
g13
tp1679
a(I157
g13
tp1680
a(I158
g13
tp1681
a(I159
VRespect
tp1682
a(I160
VRespect
tp1683
a(I161
VRespect
tp1684
a(I162
VRespect
tp1685
a(I163
g13
tp1686
a(I164
g13
tp1687
a(I165
g13
tp1688
a(I166
VRespect
tp1689
a(I167
VRespect
tp1690
a(I168
VRespect
tp1691
a(I169
VRespect
tp1692
a(I170
g13
tp1693
a(I171
g13
tp1694
a(I172
g13
tp1695
a(I173
VRespect
tp1696
a(I174
VRespect
tp1697
a(I175
VRespect
tp1698
a(I176
VRespect
tp1699
a(I177
g13
tp1700
a(I178
g13
tp1701
a(I179
g13
tp1702
a(I180
VRespect
tp1703
a(I181
VRespect
tp1704
a(I182
VRespect
tp1705
a(I183
VRespect
tp1706
a(I184
g13
tp1707
a(I185
g13
tp1708
a(I186
g13
tp1709
a(I187
VRespect
tp1710
a(I188
VRespect
tp1711
a(I189
VRespect
tp1712
a(I190
VRespect
tp1713
a(I191
g13
tp1714
a(I192
g13
tp1715
a(I193
g13
tp1716
a(I194
VRespect
tp1717
a(I195
VRespect
tp1718
a(I196
VRespect
tp1719
a(I197
VRespect
tp1720
a(I198
g13
tp1721
a(I199
g13
tp1722
a(I200
g13
tp1723
a(I201
VRespect
tp1724
a(I202
VRespect
tp1725
a(I203
VRespect
tp1726
a(I204
VRespect
tp1727
a(I205
g13
tp1728
a(I206
g13
tp1729
a(I207
g13
tp1730
a(I208
VRespect
tp1731
a(I209
VRespect
tp1732
a(I210
VRespect
tp1733
a(I211
VRespect
tp1734
a(I212
g13
tp1735
a(I213
g13
tp1736
a(I214
g13
tp1737
a(I215
VRespect
tp1738
a(I216
VRespect
tp1739
a(I217
VRespect
tp1740
a(I218
VRespect
tp1741
a(I219
g13
tp1742
a(I220
g13
tp1743
a(I221
g13
tp1744
a(I222
VRespect
tp1745
a(I223
VRespect
tp1746
a(I224
VRespect
tp1747
a(I225
VRespect
tp1748
a(I226
g13
tp1749
a(I227
g13
tp1750
a(I228
g13
tp1751
a(I229
VRespect
tp1752
a(I230
VRespect
tp1753
a(I231
VRespect
tp1754
a(I232
VRespect
tp1755
a(I233
g13
tp1756
a(I234
g13
tp1757
a(I235
g13
tp1758
a(I236
VRespect
tp1759
a(I237
VRespect
tp1760
a(I238
VRespect
tp1761
a(I239
VRespect
tp1762
a(I240
g13
tp1763
a(I241
g13
tp1764
a(I242
g13
tp1765
a(I243
VRespect
tp1766
a(I244
VRespect
tp1767
a(I245
VRespect
tp1768
a(I246
VRespect
tp1769
a(I247
g13
tp1770
a(I248
g13
tp1771
a(I249
g13
tp1772
a(I250
VRespect
tp1773
a(I251
VRespect
tp1774
a(I252
VRespect
tp1775
a(I253
VRespect
tp1776
a(I254
g13
tp1777
a(I255
g13
tp1778
a(I256
g13
tp1779
a(I257
VRespect
tp1780
a(I258
VRespect
tp1781
a(I259
VRespect
tp1782
a(I260
VRespect
tp1783
a(I261
g13
tp1784
a(I262
g13
tp1785
a(I263
g13
tp1786
a(I264
VRespect
tp1787
a(I265
VRespect
tp1788
a(I266
VRespect
tp1789
a(I267
VRespect
tp1790
a(I268
g13
tp1791
a(I269
g13
tp1792
a(I270
g13
tp1793
a(I271
VRespect
tp1794
a(I272
VRespect
tp1795
a(I273
VRespect
tp1796
a(I274
VRespect
tp1797
a(I275
g13
tp1798
a(I276
g13
tp1799
a(I277
g13
tp1800
a(I278
VRespect
tp1801
a(I279
VRespect
tp1802
a(I280
VRespect
tp1803
a(I281
VRespect
tp1804
a(I282
g13
tp1805
a(I283
g13
tp1806
a(I284
g13
tp1807
a(I285
VRespect
tp1808
a(I286
VRespect
tp1809
a(I287
VRespect
tp1810
a(I288
VRespect
tp1811
a(I289
g13
tp1812
a(I290
g13
tp1813
a(I291
g13
tp1814
a(I292
VRespect
tp1815
a(I293
VRespect
tp1816
a(I294
VRespect
tp1817
a(I295
VRespect
tp1818
a(I296
g13
tp1819
a(I297
g13
tp1820
a(I298
g13
tp1821
a(I299
VRespect
tp1822
a(I300
VRespect
tp1823
a(I301
VRespect
tp1824
a(I302
VRespect
tp1825
a(I303
g13
tp1826
a(I304
g13
tp1827
a(I305
g13
tp1828
a(I306
VRespect
tp1829
a(I307
VRespect
tp1830
a(I308
VRespect
tp1831
a(I309
VRespect
tp1832
a(I310
g13
tp1833
a(I311
g13
tp1834
a(I312
g13
tp1835
a(I313
VRespect
tp1836
a(I314
VRespect
tp1837
a(I315
VRespect
tp1838
a(I316
VRespect
tp1839
a(I317
g13
tp1840
a(I318
g13
tp1841
a(I319
g13
tp1842
a(I320
VRespect
tp1843
a(I321
VRespect
tp1844
a(I322
VRespect
tp1845
a(I323
VRespect
tp1846
a(I324
g13
tp1847
a(I325
g13
tp1848
a(I326
g13
tp1849
a(I327
VRespect
tp1850
a(I328
VRespect
tp1851
a(I329
VRespect
tp1852
a(I330
VRespect
tp1853
a(I331
g13
tp1854
a(I332
g13
tp1855
a(I333
g13
tp1856
a(I334
VRespect
tp1857
a(I335
VRespect
tp1858
a(I336
VRespect
tp1859
a(I337
VRespect
tp1860
a(I338
g13
tp1861
a(I339
g13
tp1862
a(I340
g13
tp1863
a(I341
VRespect
tp1864
a(I342
VRespect
tp1865
a(I343
VRespect
tp1866
a(I344
VRespect
tp1867
a(I345
g13
tp1868
a(I346
g13
tp1869
a(I347
g13
tp1870
a(I348
VRespect
tp1871
a(I349
VRespect
tp1872
a(I350
VRespect
tp1873
a(I351
VRespect
tp1874
a(I352
g13
tp1875
a(I353
g13
tp1876
a(I354
g13
tp1877
a(I355
VRespect
tp1878
a(I356
VRespect
tp1879
a(I357
VRespect
tp1880
a(I358
VRespect
tp1881
a(I359
g13
tp1882
a(I360
g13
tp1883
a(I361
g13
tp1884
a(I362
VRespect
tp1885
a(I363
VRespect
tp1886
a(I364
VRespect
tp1887
a(I365
VRespect
tp1888
a(I366
g13
tp1889
a(I367
g13
tp1890
a(I368
g13
tp1891
a(I369
VRespect
tp1892
a(I370
VRespect
tp1893
a(I371
VRespect
tp1894
a(I372
VRespect
tp1895
a(I373
g13
tp1896
a(I374
g13
tp1897
a(I375
g13
tp1898
a(I376
VRespect
tp1899
a(I377
VRespect
tp1900
a(I378
VRespect
tp1901
a(I379
VRespect
tp1902
a(I380
g13
tp1903
a(I381
g13
tp1904
a(I382
g13
tp1905
a(I383
VRespect
tp1906
a(I384
VRespect
tp1907
a(I385
VRespect
tp1908
a(I386
VRespect
tp1909
a(I387
g13
tp1910
a(I388
g13
tp1911
a(I389
g13
tp1912
a(I390
VRespect
tp1913
a(I391
VRespect
tp1914
a(I392
VRespect
tp1915
a(I393
VRespect
tp1916
a(I394
g13
tp1917
a(I395
g13
tp1918
a(I396
g13
tp1919
a(I397
VRespect
tp1920
a(I398
VRespect
tp1921
a(I399
VRespect
tp1922
a(I400
VRespect
tp1923
a(I401
g13
tp1924
a(I402
g13
tp1925
a(I403
g13
tp1926
a(I404
VRespect
tp1927
a(I405
VRespect
tp1928
a(I406
VRespect
tp1929
a(I407
VRespect
tp1930
a(I408
g13
tp1931
a(I409
g13
tp1932
a(I410
g13
tp1933
a(I411
VRespect
tp1934
a(I412
VRespect
tp1935
a(I413
VRespect
tp1936
a(I414
VRespect
tp1937
a(I415
g13
tp1938
a(I416
g13
tp1939
a(I417
g13
tp1940
a(I418
VRespect
tp1941
a(I419
VRespect
tp1942
a(I420
VRespect
tp1943
a(I421
VRespect
tp1944
a(I422
g13
tp1945
a(I423
g13
tp1946
a(I424
g13
tp1947
a(I425
VRespect
tp1948
a(I426
VRespect
tp1949
a(I427
VRespect
tp1950
a(I428
VRespect
tp1951
a(I429
g13
tp1952
a(I430
g13
tp1953
a(I431
g13
tp1954
a(I432
VRespect
tp1955
a(I433
VRespect
tp1956
a(I434
VRespect
tp1957
a(I435
VRespect
tp1958
a(I436
g13
tp1959
a(I437
g13
tp1960
a(I438
g13
tp1961
a(I439
VRespect
tp1962
a(I440
VRespect
tp1963
a(I441
VRespect
tp1964
a(I442
VRespect
tp1965
a(I443
g13
tp1966
a(I444
g13
tp1967
a(I445
g13
tp1968
a(I446
VRespect
tp1969
a(I447
VRespect
tp1970
a(I448
VRespect
tp1971
a(I449
VRespect
tp1972
a(I450
g13
tp1973
a(I451
g13
tp1974
a(I452
g13
tp1975
a(I453
VRespect
tp1976
a(I454
VRespect
tp1977
a(I455
VRespect
tp1978
a(I456
VRespect
tp1979
a(I457
g13
tp1980
a(I458
g13
tp1981
a(I459
g13
tp1982
a(I460
VRespect
tp1983
a(I461
VRespect
tp1984
a(I462
VRespect
tp1985
a(I463
VRespect
tp1986
a(I464
g13
tp1987
a(I465
g13
tp1988
a(I466
g13
tp1989
a(I467
VRespect
tp1990
a(I468
VRespect
tp1991
a(I469
VRespect
tp1992
a(I470
VRespect
tp1993
a(I471
g13
tp1994
a(I472
g13
tp1995
a(I473
g13
tp1996
a(I474
VRespect
tp1997
a(I475
VRespect
tp1998
a(I476
VRespect
tp1999
a(I477
VRespect
tp2000
a(I478
g13
tp2001
a(I479
g13
tp2002
a(I480
g13
tp2003
a(I481
VRespect
tp2004
a(I482
VRespect
tp2005
a(I483
VRespect
tp2006
a(I484
VRespect
tp2007
a(I485
g13
tp2008
a(I486
g13
tp2009
a(I487
g13
tp2010
a(I488
VRespect
tp2011
a(I489
VRespect
tp2012
a(I490
VRespect
tp2013
a(I491
VRespect
tp2014
a(I492
g13
tp2015
a(I493
g13
tp2016
a(I494
g13
tp2017
a(I495
VRespect
tp2018
a(I496
VRespect
tp2019
a(I497
VRespect
tp2020
a(I498
VRespect
tp2021
a(I499
g13
tp2022
a(I500
g13
tp2023
asa(dp2024
g11
(lp2025
(I0
g13
tp2026
a(I1
g13
tp2027
a(I2
g13
tp2028
a(I3
g13
tp2029
a(I4
g13
tp2030
a(I5
g13
tp2031
a(I6
g13
tp2032
a(I7
g13
tp2033
a(I8
g13
tp2034
a(I9
Ntp2035
a(I10
g13
tp2036
a(I11
g13
tp2037
a(I12
g13
tp2038
a(I13
g13
tp2039
a(I14
g13
tp2040
a(I15
Ntp2041
a(I16
g13
tp2042
a(I17
g13
tp2043
a(I18
g13
tp2044
a(I19
g13
tp2045
a(I20
g13
tp2046
a(I21
g13
tp2047
a(I22
Ntp2048
a(I23
g13
tp2049
a(I24
g13
tp2050
a(I25
g13
tp2051
a(I26
g13
tp2052
a(I27
g13
tp2053
a(I28
g13
tp2054
a(I29
Ntp2055
a(I30
g13
tp2056
a(I31
g13
tp2057
a(I32
g13
tp2058
a(I33
g13
tp2059
a(I34
g13
tp2060
a(I35
g13
tp2061
a(I36
Ntp2062
a(I37
g13
tp2063
a(I38
g13
tp2064
a(I39
g13
tp2065
a(I40
g13
tp2066
a(I41
g13
tp2067
a(I42
g13
tp2068
a(I43
Ntp2069
a(I44
g13
tp2070
a(I45
g13
tp2071
a(I46
g13
tp2072
a(I47
g13
tp2073
a(I48
g13
tp2074
a(I49
g13
tp2075
a(I50
Ntp2076
a(I51
g13
tp2077
a(I52
g13
tp2078
a(I53
g13
tp2079
a(I54
g13
tp2080
a(I55
g13
tp2081
a(I56
g13
tp2082
a(I57
Ntp2083
a(I58
g13
tp2084
a(I59
g13
tp2085
a(I60
g13
tp2086
a(I61
g13
tp2087
a(I62
g13
tp2088
a(I63
g13
tp2089
a(I64
Ntp2090
a(I65
g13
tp2091
a(I66
g13
tp2092
a(I67
g13
tp2093
a(I68
g13
tp2094
a(I69
g13
tp2095
a(I70
g13
tp2096
a(I71
Ntp2097
a(I72
g13
tp2098
a(I73
g13
tp2099
a(I74
g13
tp2100
a(I75
g13
tp2101
a(I76
g13
tp2102
a(I77
g13
tp2103
a(I78
Ntp2104
a(I79
g13
tp2105
a(I80
g13
tp2106
a(I81
g13
tp2107
a(I82
g13
tp2108
a(I83
g13
tp2109
a(I84
g13
tp2110
a(I85
Ntp2111
a(I86
g13
tp2112
a(I87
g13
tp2113
a(I88
g13
tp2114
a(I89
g13
tp2115
a(I90
g13
tp2116
a(I91
g13
tp2117
a(I92
Ntp2118
a(I93
g13
tp2119
a(I94
g13
tp2120
a(I95
g13
tp2121
a(I96
g13
tp2122
a(I97
g13
tp2123
a(I98
g13
tp2124
a(I99
Ntp2125
a(I100
g13
tp2126
a(I101
g13
tp2127
a(I102
g13
tp2128
a(I103
g13
tp2129
a(I104
g13
tp2130
a(I105
g13
tp2131
a(I106
Ntp2132
a(I107
g13
tp2133
a(I108
g13
tp2134
a(I109
g13
tp2135
a(I110
g13
tp2136
a(I111
g13
tp2137
a(I112
g13
tp2138
a(I113
Ntp2139
a(I114
g13
tp2140
a(I115
g13
tp2141
a(I116
g13
tp2142
a(I117
g13
tp2143
a(I118
g13
tp2144
a(I119
g13
tp2145
a(I120
Ntp2146
a(I121
g13
tp2147
a(I122
g13
tp2148
a(I123
g13
tp2149
a(I124
g13
tp2150
a(I125
g13
tp2151
a(I126
g13
tp2152
a(I127
Ntp2153
a(I128
g13
tp2154
a(I129
g13
tp2155
a(I130
g13
tp2156
a(I131
g13
tp2157
a(I132
g13
tp2158
a(I133
g13
tp2159
a(I134
Ntp2160
a(I135
g13
tp2161
a(I136
g13
tp2162
a(I137
g13
tp2163
a(I138
g13
tp2164
a(I139
g13
tp2165
a(I140
g13
tp2166
a(I141
Ntp2167
a(I142
g13
tp2168
a(I143
g13
tp2169
a(I144
g13
tp2170
a(I145
g13
tp2171
a(I146
g13
tp2172
a(I147
g13
tp2173
a(I148
Ntp2174
a(I149
g13
tp2175
a(I150
g13
tp2176
a(I151
g13
tp2177
a(I152
g13
tp2178
a(I153
g13
tp2179
a(I154
g13
tp2180
a(I155
Ntp2181
a(I156
g13
tp2182
a(I157
g13
tp2183
a(I158
g13
tp2184
a(I159
g13
tp2185
a(I160
g13
tp2186
a(I161
g13
tp2187
a(I162
Ntp2188
a(I163
g13
tp2189
a(I164
g13
tp2190
a(I165
g13
tp2191
a(I166
g13
tp2192
a(I167
g13
tp2193
a(I168
g13
tp2194
a(I169
Ntp2195
a(I170
g13
tp2196
a(I171
g13
tp2197
a(I172
g13
tp2198
a(I173
g13
tp2199
a(I174
g13
tp2200
a(I175
g13
tp2201
a(I176
Ntp2202
a(I177
g13
tp2203
a(I178
g13
tp2204
a(I179
g13
tp2205
a(I180
g13
tp2206
a(I181
g13
tp2207
a(I182
g13
tp2208
a(I183
Ntp2209
a(I184
g13
tp2210
a(I185
g13
tp2211
a(I186
g13
tp2212
a(I187
g13
tp2213
a(I188
g13
tp2214
a(I189
g13
tp2215
a(I190
Ntp2216
a(I191
g13
tp2217
a(I192
g13
tp2218
a(I193
g13
tp2219
a(I194
g13
tp2220
a(I195
g13
tp2221
a(I196
g13
tp2222
a(I197
Ntp2223
a(I198
g13
tp2224
a(I199
g13
tp2225
a(I200
g13
tp2226
a(I201
g13
tp2227
a(I202
g13
tp2228
a(I203
g13
tp2229
a(I204
Ntp2230
a(I205
g13
tp2231
a(I206
g13
tp2232
a(I207
g13
tp2233
a(I208
g13
tp2234
a(I209
g13
tp2235
a(I210
g13
tp2236
a(I211
Ntp2237
a(I212
g13
tp2238
a(I213
g13
tp2239
a(I214
g13
tp2240
a(I215
g13
tp2241
a(I216
g13
tp2242
a(I217
g13
tp2243
a(I218
Ntp2244
a(I219
g13
tp2245
a(I220
g13
tp2246
a(I221
g13
tp2247
a(I222
g13
tp2248
a(I223
g13
tp2249
a(I224
g13
tp2250
a(I225
Ntp2251
a(I226
g13
tp2252
a(I227
g13
tp2253
a(I228
g13
tp2254
a(I229
g13
tp2255
a(I230
g13
tp2256
a(I231
g13
tp2257
a(I232
Ntp2258
a(I233
g13
tp2259
a(I234
g13
tp2260
a(I235
g13
tp2261
a(I236
g13
tp2262
a(I237
g13
tp2263
a(I238
g13
tp2264
a(I239
Ntp2265
a(I240
g13
tp2266
a(I241
g13
tp2267
a(I242
g13
tp2268
a(I243
g13
tp2269
a(I244
g13
tp2270
a(I245
g13
tp2271
a(I246
Ntp2272
a(I247
g13
tp2273
a(I248
g13
tp2274
a(I249
g13
tp2275
a(I250
g13
tp2276
a(I251
g13
tp2277
a(I252
g13
tp2278
a(I253
Ntp2279
a(I254
g13
tp2280
a(I255
g13
tp2281
a(I256
g13
tp2282
a(I257
g13
tp2283
a(I258
g13
tp2284
a(I259
g13
tp2285
a(I260
Ntp2286
a(I261
g13
tp2287
a(I262
g13
tp2288
a(I263
g13
tp2289
a(I264
g13
tp2290
a(I265
g13
tp2291
a(I266
g13
tp2292
a(I267
Ntp2293
a(I268
g13
tp2294
a(I269
g13
tp2295
a(I270
g13
tp2296
a(I271
g13
tp2297
a(I272
g13
tp2298
a(I273
g13
tp2299
a(I274
Ntp2300
a(I275
g13
tp2301
a(I276
g13
tp2302
a(I277
g13
tp2303
a(I278
g13
tp2304
a(I279
g13
tp2305
a(I280
g13
tp2306
a(I281
Ntp2307
a(I282
g13
tp2308
a(I283
g13
tp2309
a(I284
g13
tp2310
a(I285
g13
tp2311
a(I286
g13
tp2312
a(I287
g13
tp2313
a(I288
Ntp2314
a(I289
g13
tp2315
a(I290
g13
tp2316
a(I291
g13
tp2317
a(I292
g13
tp2318
a(I293
g13
tp2319
a(I294
g13
tp2320
a(I295
Ntp2321
a(I296
g13
tp2322
a(I297
g13
tp2323
a(I298
g13
tp2324
a(I299
g13
tp2325
a(I300
g13
tp2326
a(I301
g13
tp2327
a(I302
Ntp2328
a(I303
g13
tp2329
a(I304
g13
tp2330
a(I305
g13
tp2331
a(I306
g13
tp2332
a(I307
g13
tp2333
a(I308
g13
tp2334
a(I309
Ntp2335
a(I310
g13
tp2336
a(I311
g13
tp2337
a(I312
g13
tp2338
a(I313
g13
tp2339
a(I314
g13
tp2340
a(I315
g13
tp2341
a(I316
Ntp2342
a(I317
g13
tp2343
a(I318
g13
tp2344
a(I319
g13
tp2345
a(I320
g13
tp2346
a(I321
g13
tp2347
a(I322
g13
tp2348
a(I323
Ntp2349
a(I324
g13
tp2350
a(I325
g13
tp2351
a(I326
g13
tp2352
a(I327
g13
tp2353
a(I328
g13
tp2354
a(I329
g13
tp2355
a(I330
Ntp2356
a(I331
g13
tp2357
a(I332
g13
tp2358
a(I333
g13
tp2359
a(I334
g13
tp2360
a(I335
g13
tp2361
a(I336
g13
tp2362
a(I337
Ntp2363
a(I338
g13
tp2364
a(I339
g13
tp2365
a(I340
g13
tp2366
a(I341
g13
tp2367
a(I342
g13
tp2368
a(I343
g13
tp2369
a(I344
Ntp2370
a(I345
g13
tp2371
a(I346
g13
tp2372
a(I347
g13
tp2373
a(I348
g13
tp2374
a(I349
g13
tp2375
a(I350
g13
tp2376
a(I351
Ntp2377
a(I352
g13
tp2378
a(I353
g13
tp2379
a(I354
g13
tp2380
a(I355
g13
tp2381
a(I356
g13
tp2382
a(I357
g13
tp2383
a(I358
Ntp2384
a(I359
g13
tp2385
a(I360
g13
tp2386
a(I361
g13
tp2387
a(I362
g13
tp2388
a(I363
g13
tp2389
a(I364
g13
tp2390
a(I365
Ntp2391
a(I366
g13
tp2392
a(I367
g13
tp2393
a(I368
g13
tp2394
a(I369
g13
tp2395
a(I370
g13
tp2396
a(I371
g13
tp2397
a(I372
Ntp2398
a(I373
g13
tp2399
a(I374
g13
tp2400
a(I375
g13
tp2401
a(I376
g13
tp2402
a(I377
g13
tp2403
a(I378
g13
tp2404
a(I379
Ntp2405
a(I380
g13
tp2406
a(I381
g13
tp2407
a(I382
g13
tp2408
a(I383
g13
tp2409
a(I384
g13
tp2410
a(I385
g13
tp2411
a(I386
Ntp2412
a(I387
g13
tp2413
a(I388
g13
tp2414
a(I389
g13
tp2415
a(I390
g13
tp2416
a(I391
g13
tp2417
a(I392
g13
tp2418
a(I393
Ntp2419
a(I394
g13
tp2420
a(I395
g13
tp2421
a(I396
g13
tp2422
a(I397
g13
tp2423
a(I398
g13
tp2424
a(I399
g13
tp2425
a(I400
Ntp2426
a(I401
g13
tp2427
a(I402
g13
tp2428
a(I403
g13
tp2429
a(I404
g13
tp2430
a(I405
g13
tp2431
a(I406
g13
tp2432
a(I407
Ntp2433
a(I408
g13
tp2434
a(I409
g13
tp2435
a(I410
g13
tp2436
a(I411
g13
tp2437
a(I412
g13
tp2438
a(I413
g13
tp2439
a(I414
Ntp2440
a(I415
g13
tp2441
a(I416
g13
tp2442
a(I417
g13
tp2443
a(I418
g13
tp2444
a(I419
g13
tp2445
a(I420
g13
tp2446
a(I421
Ntp2447
a(I422
g13
tp2448
a(I423
g13
tp2449
a(I424
g13
tp2450
a(I425
g13
tp2451
a(I426
g13
tp2452
a(I427
g13
tp2453
a(I428
Ntp2454
a(I429
g13
tp2455
a(I430
g13
tp2456
a(I431
g13
tp2457
a(I432
g13
tp2458
a(I433
g13
tp2459
a(I434
g13
tp2460
a(I435
Ntp2461
a(I436
g13
tp2462
a(I437
g13
tp2463
a(I438
g13
tp2464
a(I439
g13
tp2465
a(I440
g13
tp2466
a(I441
g13
tp2467
a(I442
Ntp2468
a(I443
g13
tp2469
a(I444
g13
tp2470
a(I445
g13
tp2471
a(I446
g13
tp2472
a(I447
g13
tp2473
a(I448
g13
tp2474
a(I449
Ntp2475
a(I450
g13
tp2476
a(I451
g13
tp2477
a(I452
g13
tp2478
a(I453
g13
tp2479
a(I454
g13
tp2480
a(I455
g13
tp2481
a(I456
Ntp2482
a(I457
g13
tp2483
a(I458
g13
tp2484
a(I459
g13
tp2485
a(I460
g13
tp2486
a(I461
g13
tp2487
a(I462
g13
tp2488
a(I463
Ntp2489
a(I464
g13
tp2490
a(I465
g13
tp2491
a(I466
g13
tp2492
a(I467
g13
tp2493
a(I468
g13
tp2494
a(I469
g13
tp2495
a(I470
Ntp2496
a(I471
g13
tp2497
a(I472
g13
tp2498
a(I473
g13
tp2499
a(I474
g13
tp2500
a(I475
g13
tp2501
a(I476
g13
tp2502
a(I477
Ntp2503
a(I478
g13
tp2504
a(I479
g13
tp2505
a(I480
g13
tp2506
a(I481
g13
tp2507
a(I482
g13
tp2508
a(I483
g13
tp2509
a(I484
Ntp2510
a(I485
g13
tp2511
a(I486
g13
tp2512
a(I487
g13
tp2513
a(I488
g13
tp2514
a(I489
g13
tp2515
a(I490
g13
tp2516
a(I491
Ntp2517
a(I492
g13
tp2518
a(I493
g13
tp2519
a(I494
g13
tp2520
a(I495
g13
tp2521
a(I496
g13
tp2522
a(I497
g13
tp2523
a(I498
Ntp2524
a(I499
g13
tp2525
a(I500
g13
tp2526
asg515
(lp2527
(I0
I1
tp2528
a(I1
I2
tp2529
a(I2
I3
tp2530
a(I3
I4
tp2531
a(I4
I5
tp2532
a(I5
I14
tp2533
a(I6
I6
tp2534
a(I7
I7
tp2535
a(I8
I8
tp2536
a(I9
I8
tp2537
a(I10
I9
tp2538
a(I11
I10
tp2539
a(I12
I6
tp2540
a(I13
I7
tp2541
a(I14
I8
tp2542
a(I15
I8
tp2543
a(I16
I11
tp2544
a(I17
I9
tp2545
a(I18
I10
tp2546
a(I19
I6
tp2547
a(I20
I7
tp2548
a(I21
I8
tp2549
a(I22
I8
tp2550
a(I23
I11
tp2551
a(I24
I9
tp2552
a(I25
I10
tp2553
a(I26
I6
tp2554
a(I27
I7
tp2555
a(I28
I8
tp2556
a(I29
I8
tp2557
a(I30
I11
tp2558
a(I31
I9
tp2559
a(I32
I10
tp2560
a(I33
I6
tp2561
a(I34
I7
tp2562
a(I35
I8
tp2563
a(I36
I8
tp2564
a(I37
I11
tp2565
a(I38
I9
tp2566
a(I39
I10
tp2567
a(I40
I6
tp2568
a(I41
I7
tp2569
a(I42
I8
tp2570
a(I43
I8
tp2571
a(I44
I11
tp2572
a(I45
I9
tp2573
a(I46
I10
tp2574
a(I47
I6
tp2575
a(I48
I7
tp2576
a(I49
I8
tp2577
a(I50
I8
tp2578
a(I51
I11
tp2579
a(I52
I9
tp2580
a(I53
I10
tp2581
a(I54
I6
tp2582
a(I55
I7
tp2583
a(I56
I8
tp2584
a(I57
I8
tp2585
a(I58
I11
tp2586
a(I59
I9
tp2587
a(I60
I10
tp2588
a(I61
I6
tp2589
a(I62
I7
tp2590
a(I63
I8
tp2591
a(I64
I8
tp2592
a(I65
I11
tp2593
a(I66
I9
tp2594
a(I67
I10
tp2595
a(I68
I6
tp2596
a(I69
I7
tp2597
a(I70
I8
tp2598
a(I71
I8
tp2599
a(I72
I11
tp2600
a(I73
I9
tp2601
a(I74
I10
tp2602
a(I75
I6
tp2603
a(I76
I7
tp2604
a(I77
I8
tp2605
a(I78
I8
tp2606
a(I79
I11
tp2607
a(I80
I9
tp2608
a(I81
I10
tp2609
a(I82
I6
tp2610
a(I83
I7
tp2611
a(I84
I8
tp2612
a(I85
I8
tp2613
a(I86
I11
tp2614
a(I87
I9
tp2615
a(I88
I10
tp2616
a(I89
I6
tp2617
a(I90
I7
tp2618
a(I91
I8
tp2619
a(I92
I8
tp2620
a(I93
I11
tp2621
a(I94
I9
tp2622
a(I95
I10
tp2623
a(I96
I6
tp2624
a(I97
I7
tp2625
a(I98
I8
tp2626
a(I99
I8
tp2627
a(I100
I11
tp2628
a(I101
I9
tp2629
a(I102
I10
tp2630
a(I103
I6
tp2631
a(I104
I7
tp2632
a(I105
I8
tp2633
a(I106
I8
tp2634
a(I107
I11
tp2635
a(I108
I9
tp2636
a(I109
I10
tp2637
a(I110
I6
tp2638
a(I111
I7
tp2639
a(I112
I8
tp2640
a(I113
I8
tp2641
a(I114
I11
tp2642
a(I115
I9
tp2643
a(I116
I10
tp2644
a(I117
I6
tp2645
a(I118
I7
tp2646
a(I119
I8
tp2647
a(I120
I8
tp2648
a(I121
I11
tp2649
a(I122
I9
tp2650
a(I123
I10
tp2651
a(I124
I6
tp2652
a(I125
I7
tp2653
a(I126
I8
tp2654
a(I127
I8
tp2655
a(I128
I11
tp2656
a(I129
I9
tp2657
a(I130
I10
tp2658
a(I131
I6
tp2659
a(I132
I7
tp2660
a(I133
I8
tp2661
a(I134
I8
tp2662
a(I135
I11
tp2663
a(I136
I9
tp2664
a(I137
I10
tp2665
a(I138
I6
tp2666
a(I139
I7
tp2667
a(I140
I8
tp2668
a(I141
I8
tp2669
a(I142
I11
tp2670
a(I143
I9
tp2671
a(I144
I10
tp2672
a(I145
I6
tp2673
a(I146
I7
tp2674
a(I147
I8
tp2675
a(I148
I8
tp2676
a(I149
I11
tp2677
a(I150
I9
tp2678
a(I151
I10
tp2679
a(I152
I6
tp2680
a(I153
I7
tp2681
a(I154
I8
tp2682
a(I155
I8
tp2683
a(I156
I11
tp2684
a(I157
I9
tp2685
a(I158
I10
tp2686
a(I159
I6
tp2687
a(I160
I7
tp2688
a(I161
I8
tp2689
a(I162
I8
tp2690
a(I163
I11
tp2691
a(I164
I9
tp2692
a(I165
I10
tp2693
a(I166
I6
tp2694
a(I167
I7
tp2695
a(I168
I8
tp2696
a(I169
I8
tp2697
a(I170
I11
tp2698
a(I171
I9
tp2699
a(I172
I10
tp2700
a(I173
I6
tp2701
a(I174
I7
tp2702
a(I175
I8
tp2703
a(I176
I8
tp2704
a(I177
I11
tp2705
a(I178
I9
tp2706
a(I179
I10
tp2707
a(I180
I6
tp2708
a(I181
I7
tp2709
a(I182
I8
tp2710
a(I183
I8
tp2711
a(I184
I11
tp2712
a(I185
I9
tp2713
a(I186
I10
tp2714
a(I187
I6
tp2715
a(I188
I7
tp2716
a(I189
I8
tp2717
a(I190
I8
tp2718
a(I191
I11
tp2719
a(I192
I9
tp2720
a(I193
I10
tp2721
a(I194
I6
tp2722
a(I195
I7
tp2723
a(I196
I8
tp2724
a(I197
I8
tp2725
a(I198
I11
tp2726
a(I199
I9
tp2727
a(I200
I10
tp2728
a(I201
I6
tp2729
a(I202
I7
tp2730
a(I203
I8
tp2731
a(I204
I8
tp2732
a(I205
I11
tp2733
a(I206
I9
tp2734
a(I207
I10
tp2735
a(I208
I6
tp2736
a(I209
I7
tp2737
a(I210
I8
tp2738
a(I211
I8
tp2739
a(I212
I11
tp2740
a(I213
I9
tp2741
a(I214
I10
tp2742
a(I215
I6
tp2743
a(I216
I7
tp2744
a(I217
I8
tp2745
a(I218
I8
tp2746
a(I219
I11
tp2747
a(I220
I9
tp2748
a(I221
I10
tp2749
a(I222
I6
tp2750
a(I223
I7
tp2751
a(I224
I8
tp2752
a(I225
I8
tp2753
a(I226
I11
tp2754
a(I227
I9
tp2755
a(I228
I10
tp2756
a(I229
I6
tp2757
a(I230
I7
tp2758
a(I231
I8
tp2759
a(I232
I8
tp2760
a(I233
I11
tp2761
a(I234
I9
tp2762
a(I235
I10
tp2763
a(I236
I6
tp2764
a(I237
I7
tp2765
a(I238
I8
tp2766
a(I239
I8
tp2767
a(I240
I11
tp2768
a(I241
I9
tp2769
a(I242
I10
tp2770
a(I243
I6
tp2771
a(I244
I7
tp2772
a(I245
I8
tp2773
a(I246
I8
tp2774
a(I247
I11
tp2775
a(I248
I9
tp2776
a(I249
I10
tp2777
a(I250
I6
tp2778
a(I251
I7
tp2779
a(I252
I8
tp2780
a(I253
I8
tp2781
a(I254
I11
tp2782
a(I255
I9
tp2783
a(I256
I10
tp2784
a(I257
I6
tp2785
a(I258
I7
tp2786
a(I259
I8
tp2787
a(I260
I8
tp2788
a(I261
I11
tp2789
a(I262
I9
tp2790
a(I263
I10
tp2791
a(I264
I6
tp2792
a(I265
I7
tp2793
a(I266
I8
tp2794
a(I267
I8
tp2795
a(I268
I11
tp2796
a(I269
I9
tp2797
a(I270
I10
tp2798
a(I271
I6
tp2799
a(I272
I7
tp2800
a(I273
I8
tp2801
a(I274
I8
tp2802
a(I275
I11
tp2803
a(I276
I9
tp2804
a(I277
I10
tp2805
a(I278
I6
tp2806
a(I279
I7
tp2807
a(I280
I8
tp2808
a(I281
I8
tp2809
a(I282
I11
tp2810
a(I283
I9
tp2811
a(I284
I10
tp2812
a(I285
I6
tp2813
a(I286
I7
tp2814
a(I287
I8
tp2815
a(I288
I8
tp2816
a(I289
I11
tp2817
a(I290
I9
tp2818
a(I291
I10
tp2819
a(I292
I6
tp2820
a(I293
I7
tp2821
a(I294
I8
tp2822
a(I295
I8
tp2823
a(I296
I11
tp2824
a(I297
I9
tp2825
a(I298
I10
tp2826
a(I299
I6
tp2827
a(I300
I7
tp2828
a(I301
I8
tp2829
a(I302
I8
tp2830
a(I303
I11
tp2831
a(I304
I9
tp2832
a(I305
I10
tp2833
a(I306
I6
tp2834
a(I307
I7
tp2835
a(I308
I8
tp2836
a(I309
I8
tp2837
a(I310
I11
tp2838
a(I311
I9
tp2839
a(I312
I10
tp2840
a(I313
I6
tp2841
a(I314
I7
tp2842
a(I315
I8
tp2843
a(I316
I8
tp2844
a(I317
I11
tp2845
a(I318
I9
tp2846
a(I319
I10
tp2847
a(I320
I6
tp2848
a(I321
I7
tp2849
a(I322
I8
tp2850
a(I323
I8
tp2851
a(I324
I11
tp2852
a(I325
I9
tp2853
a(I326
I10
tp2854
a(I327
I6
tp2855
a(I328
I7
tp2856
a(I329
I8
tp2857
a(I330
I8
tp2858
a(I331
I11
tp2859
a(I332
I9
tp2860
a(I333
I10
tp2861
a(I334
I6
tp2862
a(I335
I7
tp2863
a(I336
I8
tp2864
a(I337
I8
tp2865
a(I338
I11
tp2866
a(I339
I9
tp2867
a(I340
I10
tp2868
a(I341
I6
tp2869
a(I342
I7
tp2870
a(I343
I8
tp2871
a(I344
I8
tp2872
a(I345
I11
tp2873
a(I346
I9
tp2874
a(I347
I10
tp2875
a(I348
I6
tp2876
a(I349
I7
tp2877
a(I350
I8
tp2878
a(I351
I8
tp2879
a(I352
I11
tp2880
a(I353
I9
tp2881
a(I354
I10
tp2882
a(I355
I6
tp2883
a(I356
I7
tp2884
a(I357
I8
tp2885
a(I358
I8
tp2886
a(I359
I11
tp2887
a(I360
I9
tp2888
a(I361
I10
tp2889
a(I362
I6
tp2890
a(I363
I7
tp2891
a(I364
I8
tp2892
a(I365
I8
tp2893
a(I366
I11
tp2894
a(I367
I9
tp2895
a(I368
I10
tp2896
a(I369
I6
tp2897
a(I370
I7
tp2898
a(I371
I8
tp2899
a(I372
I8
tp2900
a(I373
I11
tp2901
a(I374
I9
tp2902
a(I375
I10
tp2903
a(I376
I6
tp2904
a(I377
I7
tp2905
a(I378
I8
tp2906
a(I379
I8
tp2907
a(I380
I11
tp2908
a(I381
I9
tp2909
a(I382
I10
tp2910
a(I383
I6
tp2911
a(I384
I7
tp2912
a(I385
I8
tp2913
a(I386
I8
tp2914
a(I387
I11
tp2915
a(I388
I9
tp2916
a(I389
I10
tp2917
a(I390
I6
tp2918
a(I391
I7
tp2919
a(I392
I8
tp2920
a(I393
I8
tp2921
a(I394
I11
tp2922
a(I395
I9
tp2923
a(I396
I10
tp2924
a(I397
I6
tp2925
a(I398
I7
tp2926
a(I399
I8
tp2927
a(I400
I8
tp2928
a(I401
I11
tp2929
a(I402
I9
tp2930
a(I403
I10
tp2931
a(I404
I6
tp2932
a(I405
I7
tp2933
a(I406
I8
tp2934
a(I407
I8
tp2935
a(I408
I11
tp2936
a(I409
I9
tp2937
a(I410
I10
tp2938
a(I411
I6
tp2939
a(I412
I7
tp2940
a(I413
I8
tp2941
a(I414
I8
tp2942
a(I415
I11
tp2943
a(I416
I9
tp2944
a(I417
I10
tp2945
a(I418
I6
tp2946
a(I419
I7
tp2947
a(I420
I8
tp2948
a(I421
I8
tp2949
a(I422
I11
tp2950
a(I423
I9
tp2951
a(I424
I10
tp2952
a(I425
I6
tp2953
a(I426
I7
tp2954
a(I427
I8
tp2955
a(I428
I8
tp2956
a(I429
I11
tp2957
a(I430
I9
tp2958
a(I431
I10
tp2959
a(I432
I6
tp2960
a(I433
I7
tp2961
a(I434
I8
tp2962
a(I435
I8
tp2963
a(I436
I11
tp2964
a(I437
I9
tp2965
a(I438
I10
tp2966
a(I439
I6
tp2967
a(I440
I7
tp2968
a(I441
I8
tp2969
a(I442
I8
tp2970
a(I443
I11
tp2971
a(I444
I9
tp2972
a(I445
I10
tp2973
a(I446
I6
tp2974
a(I447
I7
tp2975
a(I448
I8
tp2976
a(I449
I8
tp2977
a(I450
I11
tp2978
a(I451
I9
tp2979
a(I452
I10
tp2980
a(I453
I6
tp2981
a(I454
I7
tp2982
a(I455
I8
tp2983
a(I456
I8
tp2984
a(I457
I11
tp2985
a(I458
I9
tp2986
a(I459
I10
tp2987
a(I460
I6
tp2988
a(I461
I7
tp2989
a(I462
I8
tp2990
a(I463
I8
tp2991
a(I464
I11
tp2992
a(I465
I9
tp2993
a(I466
I10
tp2994
a(I467
I6
tp2995
a(I468
I7
tp2996
a(I469
I8
tp2997
a(I470
I8
tp2998
a(I471
I11
tp2999
a(I472
I9
tp3000
a(I473
I10
tp3001
a(I474
I6
tp3002
a(I475
I7
tp3003
a(I476
I8
tp3004
a(I477
I8
tp3005
a(I478
I11
tp3006
a(I479
I9
tp3007
a(I480
I10
tp3008
a(I481
I6
tp3009
a(I482
I7
tp3010
a(I483
I8
tp3011
a(I484
I8
tp3012
a(I485
I11
tp3013
a(I486
I9
tp3014
a(I487
I10
tp3015
a(I488
I6
tp3016
a(I489
I7
tp3017
a(I490
I8
tp3018
a(I491
I8
tp3019
a(I492
I11
tp3020
a(I493
I9
tp3021
a(I494
I10
tp3022
a(I495
I6
tp3023
a(I496
I7
tp3024
a(I497
I8
tp3025
a(I498
I8
tp3026
a(I499
I11
tp3027
a(I500
I-1
tp3028
asg1018
(lp3029
(I0
g13
tp3030
a(I1
g13
tp3031
a(I2
g13
tp3032
a(I3
g13
tp3033
a(I4
g13
tp3034
a(I5
g13
tp3035
a(I6
I183
tp3036
a(I7
I183
tp3037
a(I8
I183
tp3038
a(I9
I183
tp3039
a(I10
g13
tp3040
a(I11
g13
tp3041
a(I12
I150
tp3042
a(I13
I150
tp3043
a(I14
I150
tp3044
a(I15
I150
tp3045
a(I16
g13
tp3046
a(I17
g13
tp3047
a(I18
g13
tp3048
a(I19
I150
tp3049
a(I20
I150
tp3050
a(I21
I150
tp3051
a(I22
I150
tp3052
a(I23
g13
tp3053
a(I24
g13
tp3054
a(I25
g13
tp3055
a(I26
I150
tp3056
a(I27
I150
tp3057
a(I28
I150
tp3058
a(I29
I150
tp3059
a(I30
g13
tp3060
a(I31
g13
tp3061
a(I32
g13
tp3062
a(I33
I150
tp3063
a(I34
I150
tp3064
a(I35
I150
tp3065
a(I36
I150
tp3066
a(I37
g13
tp3067
a(I38
g13
tp3068
a(I39
g13
tp3069
a(I40
I150
tp3070
a(I41
I150
tp3071
a(I42
I150
tp3072
a(I43
I150
tp3073
a(I44
g13
tp3074
a(I45
g13
tp3075
a(I46
g13
tp3076
a(I47
I150
tp3077
a(I48
I150
tp3078
a(I49
I150
tp3079
a(I50
I150
tp3080
a(I51
g13
tp3081
a(I52
g13
tp3082
a(I53
g13
tp3083
a(I54
I150
tp3084
a(I55
I150
tp3085
a(I56
I150
tp3086
a(I57
I150
tp3087
a(I58
g13
tp3088
a(I59
g13
tp3089
a(I60
g13
tp3090
a(I61
I150
tp3091
a(I62
I150
tp3092
a(I63
I150
tp3093
a(I64
I150
tp3094
a(I65
g13
tp3095
a(I66
g13
tp3096
a(I67
g13
tp3097
a(I68
I150
tp3098
a(I69
I150
tp3099
a(I70
I150
tp3100
a(I71
I150
tp3101
a(I72
g13
tp3102
a(I73
g13
tp3103
a(I74
g13
tp3104
a(I75
I150
tp3105
a(I76
I150
tp3106
a(I77
I150
tp3107
a(I78
I150
tp3108
a(I79
g13
tp3109
a(I80
g13
tp3110
a(I81
g13
tp3111
a(I82
I150
tp3112
a(I83
I150
tp3113
a(I84
I150
tp3114
a(I85
I150
tp3115
a(I86
g13
tp3116
a(I87
g13
tp3117
a(I88
g13
tp3118
a(I89
I150
tp3119
a(I90
I150
tp3120
a(I91
I150
tp3121
a(I92
I150
tp3122
a(I93
g13
tp3123
a(I94
g13
tp3124
a(I95
g13
tp3125
a(I96
I150
tp3126
a(I97
I150
tp3127
a(I98
I150
tp3128
a(I99
I150
tp3129
a(I100
g13
tp3130
a(I101
g13
tp3131
a(I102
g13
tp3132
a(I103
I150
tp3133
a(I104
I150
tp3134
a(I105
I150
tp3135
a(I106
I150
tp3136
a(I107
g13
tp3137
a(I108
g13
tp3138
a(I109
g13
tp3139
a(I110
I150
tp3140
a(I111
I150
tp3141
a(I112
I150
tp3142
a(I113
I150
tp3143
a(I114
g13
tp3144
a(I115
g13
tp3145
a(I116
g13
tp3146
a(I117
I150
tp3147
a(I118
I150
tp3148
a(I119
I150
tp3149
a(I120
I150
tp3150
a(I121
g13
tp3151
a(I122
g13
tp3152
a(I123
g13
tp3153
a(I124
I150
tp3154
a(I125
I150
tp3155
a(I126
I150
tp3156
a(I127
I150
tp3157
a(I128
g13
tp3158
a(I129
g13
tp3159
a(I130
g13
tp3160
a(I131
I150
tp3161
a(I132
I150
tp3162
a(I133
I150
tp3163
a(I134
I150
tp3164
a(I135
g13
tp3165
a(I136
g13
tp3166
a(I137
g13
tp3167
a(I138
I150
tp3168
a(I139
I150
tp3169
a(I140
I150
tp3170
a(I141
I150
tp3171
a(I142
g13
tp3172
a(I143
g13
tp3173
a(I144
g13
tp3174
a(I145
I150
tp3175
a(I146
I150
tp3176
a(I147
I150
tp3177
a(I148
I150
tp3178
a(I149
g13
tp3179
a(I150
g13
tp3180
a(I151
g13
tp3181
a(I152
I150
tp3182
a(I153
I150
tp3183
a(I154
I150
tp3184
a(I155
I150
tp3185
a(I156
g13
tp3186
a(I157
g13
tp3187
a(I158
g13
tp3188
a(I159
I150
tp3189
a(I160
I150
tp3190
a(I161
I150
tp3191
a(I162
I150
tp3192
a(I163
g13
tp3193
a(I164
g13
tp3194
a(I165
g13
tp3195
a(I166
I150
tp3196
a(I167
I150
tp3197
a(I168
I150
tp3198
a(I169
I150
tp3199
a(I170
g13
tp3200
a(I171
g13
tp3201
a(I172
g13
tp3202
a(I173
I150
tp3203
a(I174
I150
tp3204
a(I175
I150
tp3205
a(I176
I150
tp3206
a(I177
g13
tp3207
a(I178
g13
tp3208
a(I179
g13
tp3209
a(I180
I150
tp3210
a(I181
I150
tp3211
a(I182
I150
tp3212
a(I183
I150
tp3213
a(I184
g13
tp3214
a(I185
g13
tp3215
a(I186
g13
tp3216
a(I187
I150
tp3217
a(I188
I150
tp3218
a(I189
I150
tp3219
a(I190
I150
tp3220
a(I191
g13
tp3221
a(I192
g13
tp3222
a(I193
g13
tp3223
a(I194
I150
tp3224
a(I195
I150
tp3225
a(I196
I150
tp3226
a(I197
I150
tp3227
a(I198
g13
tp3228
a(I199
g13
tp3229
a(I200
g13
tp3230
a(I201
I150
tp3231
a(I202
I150
tp3232
a(I203
I150
tp3233
a(I204
I150
tp3234
a(I205
g13
tp3235
a(I206
g13
tp3236
a(I207
g13
tp3237
a(I208
I150
tp3238
a(I209
I150
tp3239
a(I210
I150
tp3240
a(I211
I150
tp3241
a(I212
g13
tp3242
a(I213
g13
tp3243
a(I214
g13
tp3244
a(I215
I150
tp3245
a(I216
I150
tp3246
a(I217
I150
tp3247
a(I218
I150
tp3248
a(I219
g13
tp3249
a(I220
g13
tp3250
a(I221
g13
tp3251
a(I222
I150
tp3252
a(I223
I150
tp3253
a(I224
I150
tp3254
a(I225
I150
tp3255
a(I226
g13
tp3256
a(I227
g13
tp3257
a(I228
g13
tp3258
a(I229
I150
tp3259
a(I230
I150
tp3260
a(I231
I150
tp3261
a(I232
I150
tp3262
a(I233
g13
tp3263
a(I234
g13
tp3264
a(I235
g13
tp3265
a(I236
I150
tp3266
a(I237
I150
tp3267
a(I238
I150
tp3268
a(I239
I150
tp3269
a(I240
g13
tp3270
a(I241
g13
tp3271
a(I242
g13
tp3272
a(I243
I150
tp3273
a(I244
I150
tp3274
a(I245
I150
tp3275
a(I246
I150
tp3276
a(I247
g13
tp3277
a(I248
g13
tp3278
a(I249
g13
tp3279
a(I250
I150
tp3280
a(I251
I150
tp3281
a(I252
I150
tp3282
a(I253
I150
tp3283
a(I254
g13
tp3284
a(I255
g13
tp3285
a(I256
g13
tp3286
a(I257
I150
tp3287
a(I258
I150
tp3288
a(I259
I150
tp3289
a(I260
I150
tp3290
a(I261
g13
tp3291
a(I262
g13
tp3292
a(I263
g13
tp3293
a(I264
I150
tp3294
a(I265
I150
tp3295
a(I266
I150
tp3296
a(I267
I150
tp3297
a(I268
g13
tp3298
a(I269
g13
tp3299
a(I270
g13
tp3300
a(I271
I150
tp3301
a(I272
I150
tp3302
a(I273
I150
tp3303
a(I274
I150
tp3304
a(I275
g13
tp3305
a(I276
g13
tp3306
a(I277
g13
tp3307
a(I278
I150
tp3308
a(I279
I150
tp3309
a(I280
I150
tp3310
a(I281
I150
tp3311
a(I282
g13
tp3312
a(I283
g13
tp3313
a(I284
g13
tp3314
a(I285
I150
tp3315
a(I286
I150
tp3316
a(I287
I150
tp3317
a(I288
I150
tp3318
a(I289
g13
tp3319
a(I290
g13
tp3320
a(I291
g13
tp3321
a(I292
I150
tp3322
a(I293
I150
tp3323
a(I294
I150
tp3324
a(I295
I150
tp3325
a(I296
g13
tp3326
a(I297
g13
tp3327
a(I298
g13
tp3328
a(I299
I150
tp3329
a(I300
I150
tp3330
a(I301
I150
tp3331
a(I302
I150
tp3332
a(I303
g13
tp3333
a(I304
g13
tp3334
a(I305
g13
tp3335
a(I306
I150
tp3336
a(I307
I150
tp3337
a(I308
I150
tp3338
a(I309
I150
tp3339
a(I310
g13
tp3340
a(I311
g13
tp3341
a(I312
g13
tp3342
a(I313
I150
tp3343
a(I314
I150
tp3344
a(I315
I150
tp3345
a(I316
I150
tp3346
a(I317
g13
tp3347
a(I318
g13
tp3348
a(I319
g13
tp3349
a(I320
I150
tp3350
a(I321
I150
tp3351
a(I322
I150
tp3352
a(I323
I150
tp3353
a(I324
g13
tp3354
a(I325
g13
tp3355
a(I326
g13
tp3356
a(I327
I150
tp3357
a(I328
I150
tp3358
a(I329
I150
tp3359
a(I330
I150
tp3360
a(I331
g13
tp3361
a(I332
g13
tp3362
a(I333
g13
tp3363
a(I334
I150
tp3364
a(I335
I150
tp3365
a(I336
I150
tp3366
a(I337
I150
tp3367
a(I338
g13
tp3368
a(I339
g13
tp3369
a(I340
g13
tp3370
a(I341
I150
tp3371
a(I342
I150
tp3372
a(I343
I150
tp3373
a(I344
I150
tp3374
a(I345
g13
tp3375
a(I346
g13
tp3376
a(I347
g13
tp3377
a(I348
I150
tp3378
a(I349
I150
tp3379
a(I350
I150
tp3380
a(I351
I150
tp3381
a(I352
g13
tp3382
a(I353
g13
tp3383
a(I354
g13
tp3384
a(I355
I150
tp3385
a(I356
I150
tp3386
a(I357
I150
tp3387
a(I358
I150
tp3388
a(I359
g13
tp3389
a(I360
g13
tp3390
a(I361
g13
tp3391
a(I362
I150
tp3392
a(I363
I150
tp3393
a(I364
I150
tp3394
a(I365
I150
tp3395
a(I366
g13
tp3396
a(I367
g13
tp3397
a(I368
g13
tp3398
a(I369
I150
tp3399
a(I370
I150
tp3400
a(I371
I150
tp3401
a(I372
I150
tp3402
a(I373
g13
tp3403
a(I374
g13
tp3404
a(I375
g13
tp3405
a(I376
I150
tp3406
a(I377
I150
tp3407
a(I378
I150
tp3408
a(I379
I150
tp3409
a(I380
g13
tp3410
a(I381
g13
tp3411
a(I382
g13
tp3412
a(I383
I150
tp3413
a(I384
I150
tp3414
a(I385
I150
tp3415
a(I386
I150
tp3416
a(I387
g13
tp3417
a(I388
g13
tp3418
a(I389
g13
tp3419
a(I390
I150
tp3420
a(I391
I150
tp3421
a(I392
I150
tp3422
a(I393
I150
tp3423
a(I394
g13
tp3424
a(I395
g13
tp3425
a(I396
g13
tp3426
a(I397
I150
tp3427
a(I398
I150
tp3428
a(I399
I150
tp3429
a(I400
I150
tp3430
a(I401
g13
tp3431
a(I402
g13
tp3432
a(I403
g13
tp3433
a(I404
I150
tp3434
a(I405
I150
tp3435
a(I406
I150
tp3436
a(I407
I150
tp3437
a(I408
g13
tp3438
a(I409
g13
tp3439
a(I410
g13
tp3440
a(I411
I150
tp3441
a(I412
I150
tp3442
a(I413
I150
tp3443
a(I414
I150
tp3444
a(I415
g13
tp3445
a(I416
g13
tp3446
a(I417
g13
tp3447
a(I418
I150
tp3448
a(I419
I150
tp3449
a(I420
I150
tp3450
a(I421
I150
tp3451
a(I422
g13
tp3452
a(I423
g13
tp3453
a(I424
g13
tp3454
a(I425
I150
tp3455
a(I426
I150
tp3456
a(I427
I150
tp3457
a(I428
I150
tp3458
a(I429
g13
tp3459
a(I430
g13
tp3460
a(I431
g13
tp3461
a(I432
I150
tp3462
a(I433
I150
tp3463
a(I434
I150
tp3464
a(I435
I150
tp3465
a(I436
g13
tp3466
a(I437
g13
tp3467
a(I438
g13
tp3468
a(I439
I150
tp3469
a(I440
I150
tp3470
a(I441
I150
tp3471
a(I442
I150
tp3472
a(I443
g13
tp3473
a(I444
g13
tp3474
a(I445
g13
tp3475
a(I446
I150
tp3476
a(I447
I150
tp3477
a(I448
I150
tp3478
a(I449
I150
tp3479
a(I450
g13
tp3480
a(I451
g13
tp3481
a(I452
g13
tp3482
a(I453
I150
tp3483
a(I454
I150
tp3484
a(I455
I150
tp3485
a(I456
I150
tp3486
a(I457
g13
tp3487
a(I458
g13
tp3488
a(I459
g13
tp3489
a(I460
I150
tp3490
a(I461
I150
tp3491
a(I462
I150
tp3492
a(I463
I150
tp3493
a(I464
g13
tp3494
a(I465
g13
tp3495
a(I466
g13
tp3496
a(I467
I150
tp3497
a(I468
I150
tp3498
a(I469
I150
tp3499
a(I470
I150
tp3500
a(I471
g13
tp3501
a(I472
g13
tp3502
a(I473
g13
tp3503
a(I474
I150
tp3504
a(I475
I150
tp3505
a(I476
I150
tp3506
a(I477
I150
tp3507
a(I478
g13
tp3508
a(I479
g13
tp3509
a(I480
g13
tp3510
a(I481
I150
tp3511
a(I482
I150
tp3512
a(I483
I150
tp3513
a(I484
I150
tp3514
a(I485
g13
tp3515
a(I486
g13
tp3516
a(I487
g13
tp3517
a(I488
I150
tp3518
a(I489
I150
tp3519
a(I490
I150
tp3520
a(I491
I150
tp3521
a(I492
g13
tp3522
a(I493
g13
tp3523
a(I494
g13
tp3524
a(I495
I150
tp3525
a(I496
I150
tp3526
a(I497
I150
tp3527
a(I498
I150
tp3528
a(I499
g13
tp3529
a(I500
g13
tp3530
asg1521
(lp3531
(I0
g13
tp3532
a(I1
g13
tp3533
a(I2
g13
tp3534
a(I3
g13
tp3535
a(I4
g13
tp3536
a(I5
g13
tp3537
a(I6
VTruth Hurts
tp3538
a(I7
VTruth Hurts
tp3539
a(I8
VTruth Hurts
tp3540
a(I9
VTruth Hurts
tp3541
a(I10
g13
tp3542
a(I11
g13
tp3543
a(I12
VRespect
tp3544
a(I13
VRespect
tp3545
a(I14
VRespect
tp3546
a(I15
VRespect
tp3547
a(I16
g13
tp3548
a(I17
g13
tp3549
a(I18
g13
tp3550
a(I19
VRespect
tp3551
a(I20
VRespect
tp3552
a(I21
VRespect
tp3553
a(I22
VRespect
tp3554
a(I23
g13
tp3555
a(I24
g13
tp3556
a(I25
g13
tp3557
a(I26
VRespect
tp3558
a(I27
VRespect
tp3559
a(I28
VRespect
tp3560
a(I29
VRespect
tp3561
a(I30
g13
tp3562
a(I31
g13
tp3563
a(I32
g13
tp3564
a(I33
VRespect
tp3565
a(I34
VRespect
tp3566
a(I35
VRespect
tp3567
a(I36
VRespect
tp3568
a(I37
g13
tp3569
a(I38
g13
tp3570
a(I39
g13
tp3571
a(I40
VRespect
tp3572
a(I41
VRespect
tp3573
a(I42
VRespect
tp3574
a(I43
VRespect
tp3575
a(I44
g13
tp3576
a(I45
g13
tp3577
a(I46
g13
tp3578
a(I47
VRespect
tp3579
a(I48
VRespect
tp3580
a(I49
VRespect
tp3581
a(I50
VRespect
tp3582
a(I51
g13
tp3583
a(I52
g13
tp3584
a(I53
g13
tp3585
a(I54
VRespect
tp3586
a(I55
VRespect
tp3587
a(I56
VRespect
tp3588
a(I57
VRespect
tp3589
a(I58
g13
tp3590
a(I59
g13
tp3591
a(I60
g13
tp3592
a(I61
VRespect
tp3593
a(I62
VRespect
tp3594
a(I63
VRespect
tp3595
a(I64
VRespect
tp3596
a(I65
g13
tp3597
a(I66
g13
tp3598
a(I67
g13
tp3599
a(I68
VRespect
tp3600
a(I69
VRespect
tp3601
a(I70
VRespect
tp3602
a(I71
VRespect
tp3603
a(I72
g13
tp3604
a(I73
g13
tp3605
a(I74
g13
tp3606
a(I75
VRespect
tp3607
a(I76
VRespect
tp3608
a(I77
VRespect
tp3609
a(I78
VRespect
tp3610
a(I79
g13
tp3611
a(I80
g13
tp3612
a(I81
g13
tp3613
a(I82
VRespect
tp3614
a(I83
VRespect
tp3615
a(I84
VRespect
tp3616
a(I85
VRespect
tp3617
a(I86
g13
tp3618
a(I87
g13
tp3619
a(I88
g13
tp3620
a(I89
VRespect
tp3621
a(I90
VRespect
tp3622
a(I91
VRespect
tp3623
a(I92
VRespect
tp3624
a(I93
g13
tp3625
a(I94
g13
tp3626
a(I95
g13
tp3627
a(I96
VRespect
tp3628
a(I97
VRespect
tp3629
a(I98
VRespect
tp3630
a(I99
VRespect
tp3631
a(I100
g13
tp3632
a(I101
g13
tp3633
a(I102
g13
tp3634
a(I103
VRespect
tp3635
a(I104
VRespect
tp3636
a(I105
VRespect
tp3637
a(I106
VRespect
tp3638
a(I107
g13
tp3639
a(I108
g13
tp3640
a(I109
g13
tp3641
a(I110
VRespect
tp3642
a(I111
VRespect
tp3643
a(I112
VRespect
tp3644
a(I113
VRespect
tp3645
a(I114
g13
tp3646
a(I115
g13
tp3647
a(I116
g13
tp3648
a(I117
VRespect
tp3649
a(I118
VRespect
tp3650
a(I119
VRespect
tp3651
a(I120
VRespect
tp3652
a(I121
g13
tp3653
a(I122
g13
tp3654
a(I123
g13
tp3655
a(I124
VRespect
tp3656
a(I125
VRespect
tp3657
a(I126
VRespect
tp3658
a(I127
VRespect
tp3659
a(I128
g13
tp3660
a(I129
g13
tp3661
a(I130
g13
tp3662
a(I131
VRespect
tp3663
a(I132
VRespect
tp3664
a(I133
VRespect
tp3665
a(I134
VRespect
tp3666
a(I135
g13
tp3667
a(I136
g13
tp3668
a(I137
g13
tp3669
a(I138
VRespect
tp3670
a(I139
VRespect
tp3671
a(I140
VRespect
tp3672
a(I141
VRespect
tp3673
a(I142
g13
tp3674
a(I143
g13
tp3675
a(I144
g13
tp3676
a(I145
VRespect
tp3677
a(I146
VRespect
tp3678
a(I147
VRespect
tp3679
a(I148
VRespect
tp3680
a(I149
g13
tp3681
a(I150
g13
tp3682
a(I151
g13
tp3683
a(I152
VRespect
tp3684
a(I153
VRespect
tp3685
a(I154
VRespect
tp3686
a(I155
VRespect
tp3687
a(I156
g13
tp3688
a(I157
g13
tp3689
a(I158
g13
tp3690
a(I159
VRespect
tp3691
a(I160
VRespect
tp3692
a(I161
VRespect
tp3693
a(I162
VRespect
tp3694
a(I163
g13
tp3695
a(I164
g13
tp3696
a(I165
g13
tp3697
a(I166
VRespect
tp3698
a(I167
VRespect
tp3699
a(I168
VRespect
tp3700
a(I169
VRespect
tp3701
a(I170
g13
tp3702
a(I171
g13
tp3703
a(I172
g13
tp3704
a(I173
VRespect
tp3705
a(I174
VRespect
tp3706
a(I175
VRespect
tp3707
a(I176
VRespect
tp3708
a(I177
g13
tp3709
a(I178
g13
tp3710
a(I179
g13
tp3711
a(I180
VRespect
tp3712
a(I181
VRespect
tp3713
a(I182
VRespect
tp3714
a(I183
VRespect
tp3715
a(I184
g13
tp3716
a(I185
g13
tp3717
a(I186
g13
tp3718
a(I187
VRespect
tp3719
a(I188
VRespect
tp3720
a(I189
VRespect
tp3721
a(I190
VRespect
tp3722
a(I191
g13
tp3723
a(I192
g13
tp3724
a(I193
g13
tp3725
a(I194
VRespect
tp3726
a(I195
VRespect
tp3727
a(I196
VRespect
tp3728
a(I197
VRespect
tp3729
a(I198
g13
tp3730
a(I199
g13
tp3731
a(I200
g13
tp3732
a(I201
VRespect
tp3733
a(I202
VRespect
tp3734
a(I203
VRespect
tp3735
a(I204
VRespect
tp3736
a(I205
g13
tp3737
a(I206
g13
tp3738
a(I207
g13
tp3739
a(I208
VRespect
tp3740
a(I209
VRespect
tp3741
a(I210
VRespect
tp3742
a(I211
VRespect
tp3743
a(I212
g13
tp3744
a(I213
g13
tp3745
a(I214
g13
tp3746
a(I215
VRespect
tp3747
a(I216
VRespect
tp3748
a(I217
VRespect
tp3749
a(I218
VRespect
tp3750
a(I219
g13
tp3751
a(I220
g13
tp3752
a(I221
g13
tp3753
a(I222
VRespect
tp3754
a(I223
VRespect
tp3755
a(I224
VRespect
tp3756
a(I225
VRespect
tp3757
a(I226
g13
tp3758
a(I227
g13
tp3759
a(I228
g13
tp3760
a(I229
VRespect
tp3761
a(I230
VRespect
tp3762
a(I231
VRespect
tp3763
a(I232
VRespect
tp3764
a(I233
g13
tp3765
a(I234
g13
tp3766
a(I235
g13
tp3767
a(I236
VRespect
tp3768
a(I237
VRespect
tp3769
a(I238
VRespect
tp3770
a(I239
VRespect
tp3771
a(I240
g13
tp3772
a(I241
g13
tp3773
a(I242
g13
tp3774
a(I243
VRespect
tp3775
a(I244
VRespect
tp3776
a(I245
VRespect
tp3777
a(I246
VRespect
tp3778
a(I247
g13
tp3779
a(I248
g13
tp3780
a(I249
g13
tp3781
a(I250
VRespect
tp3782
a(I251
VRespect
tp3783
a(I252
VRespect
tp3784
a(I253
VRespect
tp3785
a(I254
g13
tp3786
a(I255
g13
tp3787
a(I256
g13
tp3788
a(I257
VRespect
tp3789
a(I258
VRespect
tp3790
a(I259
VRespect
tp3791
a(I260
VRespect
tp3792
a(I261
g13
tp3793
a(I262
g13
tp3794
a(I263
g13
tp3795
a(I264
VRespect
tp3796
a(I265
VRespect
tp3797
a(I266
VRespect
tp3798
a(I267
VRespect
tp3799
a(I268
g13
tp3800
a(I269
g13
tp3801
a(I270
g13
tp3802
a(I271
VRespect
tp3803
a(I272
VRespect
tp3804
a(I273
VRespect
tp3805
a(I274
VRespect
tp3806
a(I275
g13
tp3807
a(I276
g13
tp3808
a(I277
g13
tp3809
a(I278
VRespect
tp3810
a(I279
VRespect
tp3811
a(I280
VRespect
tp3812
a(I281
VRespect
tp3813
a(I282
g13
tp3814
a(I283
g13
tp3815
a(I284
g13
tp3816
a(I285
VRespect
tp3817
a(I286
VRespect
tp3818
a(I287
VRespect
tp3819
a(I288
VRespect
tp3820
a(I289
g13
tp3821
a(I290
g13
tp3822
a(I291
g13
tp3823
a(I292
VRespect
tp3824
a(I293
VRespect
tp3825
a(I294
VRespect
tp3826
a(I295
VRespect
tp3827
a(I296
g13
tp3828
a(I297
g13
tp3829
a(I298
g13
tp3830
a(I299
VRespect
tp3831
a(I300
VRespect
tp3832
a(I301
VRespect
tp3833
a(I302
VRespect
tp3834
a(I303
g13
tp3835
a(I304
g13
tp3836
a(I305
g13
tp3837
a(I306
VRespect
tp3838
a(I307
VRespect
tp3839
a(I308
VRespect
tp3840
a(I309
VRespect
tp3841
a(I310
g13
tp3842
a(I311
g13
tp3843
a(I312
g13
tp3844
a(I313
VRespect
tp3845
a(I314
VRespect
tp3846
a(I315
VRespect
tp3847
a(I316
VRespect
tp3848
a(I317
g13
tp3849
a(I318
g13
tp3850
a(I319
g13
tp3851
a(I320
VRespect
tp3852
a(I321
VRespect
tp3853
a(I322
VRespect
tp3854
a(I323
VRespect
tp3855
a(I324
g13
tp3856
a(I325
g13
tp3857
a(I326
g13
tp3858
a(I327
VRespect
tp3859
a(I328
VRespect
tp3860
a(I329
VRespect
tp3861
a(I330
VRespect
tp3862
a(I331
g13
tp3863
a(I332
g13
tp3864
a(I333
g13
tp3865
a(I334
VRespect
tp3866
a(I335
VRespect
tp3867
a(I336
VRespect
tp3868
a(I337
VRespect
tp3869
a(I338
g13
tp3870
a(I339
g13
tp3871
a(I340
g13
tp3872
a(I341
VRespect
tp3873
a(I342
VRespect
tp3874
a(I343
VRespect
tp3875
a(I344
VRespect
tp3876
a(I345
g13
tp3877
a(I346
g13
tp3878
a(I347
g13
tp3879
a(I348
VRespect
tp3880
a(I349
VRespect
tp3881
a(I350
VRespect
tp3882
a(I351
VRespect
tp3883
a(I352
g13
tp3884
a(I353
g13
tp3885
a(I354
g13
tp3886
a(I355
VRespect
tp3887
a(I356
VRespect
tp3888
a(I357
VRespect
tp3889
a(I358
VRespect
tp3890
a(I359
g13
tp3891
a(I360
g13
tp3892
a(I361
g13
tp3893
a(I362
VRespect
tp3894
a(I363
VRespect
tp3895
a(I364
VRespect
tp3896
a(I365
VRespect
tp3897
a(I366
g13
tp3898
a(I367
g13
tp3899
a(I368
g13
tp3900
a(I369
VRespect
tp3901
a(I370
VRespect
tp3902
a(I371
VRespect
tp3903
a(I372
VRespect
tp3904
a(I373
g13
tp3905
a(I374
g13
tp3906
a(I375
g13
tp3907
a(I376
VRespect
tp3908
a(I377
VRespect
tp3909
a(I378
VRespect
tp3910
a(I379
VRespect
tp3911
a(I380
g13
tp3912
a(I381
g13
tp3913
a(I382
g13
tp3914
a(I383
VRespect
tp3915
a(I384
VRespect
tp3916
a(I385
VRespect
tp3917
a(I386
VRespect
tp3918
a(I387
g13
tp3919
a(I388
g13
tp3920
a(I389
g13
tp3921
a(I390
VRespect
tp3922
a(I391
VRespect
tp3923
a(I392
VRespect
tp3924
a(I393
VRespect
tp3925
a(I394
g13
tp3926
a(I395
g13
tp3927
a(I396
g13
tp3928
a(I397
VRespect
tp3929
a(I398
VRespect
tp3930
a(I399
VRespect
tp3931
a(I400
VRespect
tp3932
a(I401
g13
tp3933
a(I402
g13
tp3934
a(I403
g13
tp3935
a(I404
VRespect
tp3936
a(I405
VRespect
tp3937
a(I406
VRespect
tp3938
a(I407
VRespect
tp3939
a(I408
g13
tp3940
a(I409
g13
tp3941
a(I410
g13
tp3942
a(I411
VRespect
tp3943
a(I412
VRespect
tp3944
a(I413
VRespect
tp3945
a(I414
VRespect
tp3946
a(I415
g13
tp3947
a(I416
g13
tp3948
a(I417
g13
tp3949
a(I418
VRespect
tp3950
a(I419
VRespect
tp3951
a(I420
VRespect
tp3952
a(I421
VRespect
tp3953
a(I422
g13
tp3954
a(I423
g13
tp3955
a(I424
g13
tp3956
a(I425
VRespect
tp3957
a(I426
VRespect
tp3958
a(I427
VRespect
tp3959
a(I428
VRespect
tp3960
a(I429
g13
tp3961
a(I430
g13
tp3962
a(I431
g13
tp3963
a(I432
VRespect
tp3964
a(I433
VRespect
tp3965
a(I434
VRespect
tp3966
a(I435
VRespect
tp3967
a(I436
g13
tp3968
a(I437
g13
tp3969
a(I438
g13
tp3970
a(I439
VRespect
tp3971
a(I440
VRespect
tp3972
a(I441
VRespect
tp3973
a(I442
VRespect
tp3974
a(I443
g13
tp3975
a(I444
g13
tp3976
a(I445
g13
tp3977
a(I446
VRespect
tp3978
a(I447
VRespect
tp3979
a(I448
VRespect
tp3980
a(I449
VRespect
tp3981
a(I450
g13
tp3982
a(I451
g13
tp3983
a(I452
g13
tp3984
a(I453
VRespect
tp3985
a(I454
VRespect
tp3986
a(I455
VRespect
tp3987
a(I456
VRespect
tp3988
a(I457
g13
tp3989
a(I458
g13
tp3990
a(I459
g13
tp3991
a(I460
VRespect
tp3992
a(I461
VRespect
tp3993
a(I462
VRespect
tp3994
a(I463
VRespect
tp3995
a(I464
g13
tp3996
a(I465
g13
tp3997
a(I466
g13
tp3998
a(I467
VRespect
tp3999
a(I468
VRespect
tp4000
a(I469
VRespect
tp4001
a(I470
VRespect
tp4002
a(I471
g13
tp4003
a(I472
g13
tp4004
a(I473
g13
tp4005
a(I474
VRespect
tp4006
a(I475
VRespect
tp4007
a(I476
VRespect
tp4008
a(I477
VRespect
tp4009
a(I478
g13
tp4010
a(I479
g13
tp4011
a(I480
g13
tp4012
a(I481
VRespect
tp4013
a(I482
VRespect
tp4014
a(I483
VRespect
tp4015
a(I484
VRespect
tp4016
a(I485
g13
tp4017
a(I486
g13
tp4018
a(I487
g13
tp4019
a(I488
VRespect
tp4020
a(I489
VRespect
tp4021
a(I490
VRespect
tp4022
a(I491
VRespect
tp4023
a(I492
g13
tp4024
a(I493
g13
tp4025
a(I494
g13
tp4026
a(I495
VRespect
tp4027
a(I496
VRespect
tp4028
a(I497
VRespect
tp4029
a(I498
VRespect
tp4030
a(I499
g13
tp4031
a(I500
g13
tp4032
asas.