(dp1
S'outputs'
p2
(lp3
S''
aS''
asS'testcases'
p4
(lp5
S'Song(\'Respect\',150).__str__(), "Respect, 150", "testing __str__ with Respect"'
p6
aS'Song(\'Truth Hurts\',183).__str__(), "Truth Hurts, 183", "testing __str__ with Truth Hurts"'
p7
asS'traces'
p8
(lp9
(dp10
S'__return__'
p11
(lp12
(I0
S'myNaN'
p13
tp14
a(I1
g13
tp15
a(I2
g13
tp16
a(I3
g13
tp17
a(I4
g13
tp18
a(I5
g13
tp19
a(I6
g13
tp20
a(I7
g13
tp21
a(I8
g13
tp22
a(I9
Ntp23
a(I10
g13
tp24
a(I11
g13
tp25
a(I12
g13
tp26
a(I13
g13
tp27
a(I14
Ntp28
a(I15
g13
tp29
a(I16
g13
tp30
a(I17
(S'Respect'
p31
S','
I150
tp32
tp33
a(I18
g13
tp34
asS'__lineNo__'
p35
(lp36
(I0
I1
tp37
a(I1
I2
tp38
a(I2
I3
tp39
a(I3
I4
tp40
a(I4
I5
tp41
a(I5
I11
tp42
a(I6
I6
tp43
a(I7
I7
tp44
a(I8
I8
tp45
a(I9
I8
tp46
a(I10
I14
tp47
a(I11
I6
tp48
a(I12
I7
tp49
a(I13
I8
tp50
a(I14
I8
tp51
a(I15
I9
tp52
a(I16
I10
tp53
a(I17
I10
tp54
a(I18
I14
tp55
asS'len'
p56
(lp57
(I0
g13
tp58
a(I1
g13
tp59
a(I2
g13
tp60
a(I3
g13
tp61
a(I4
g13
tp62
a(I5
g13
tp63
a(I6
I150
tp64
a(I7
I150
tp65
a(I8
I150
tp66
a(I9
I150
tp67
a(I10
g13
tp68
a(I11
I150
tp69
a(I12
I150
tp70
a(I13
I150
tp71
a(I14
I150
tp72
a(I15
g13
tp73
a(I16
g13
tp74
a(I17
g13
tp75
a(I18
g13
tp76
asS'title'
p77
(lp78
(I0
g13
tp79
a(I1
g13
tp80
a(I2
g13
tp81
a(I3
g13
tp82
a(I4
g13
tp83
a(I5
g13
tp84
a(I6
VRespect
p85
tp86
a(I7
VRespect
p87
tp88
a(I8
VRespect
p89
tp90
a(I9
VRespect
p91
tp92
a(I10
g13
tp93
a(I11
VRespect
p94
tp95
a(I12
VRespect
p96
tp97
a(I13
VRespect
p98
tp99
a(I14
VRespect
p100
tp101
a(I15
g13
tp102
a(I16
g13
tp103
a(I17
g13
tp104
a(I18
g13
tp105
asa(dp106
g11
(lp107
(I0
g13
tp108
a(I1
g13
tp109
a(I2
g13
tp110
a(I3
g13
tp111
a(I4
g13
tp112
a(I5
g13
tp113
a(I6
g13
tp114
a(I7
g13
tp115
a(I8
g13
tp116
a(I9
Ntp117
a(I10
g13
tp118
a(I11
g13
tp119
a(I12
g13
tp120
a(I13
g13
tp121
a(I14
Ntp122
a(I15
g13
tp123
a(I16
g13
tp124
a(I17
(S'Truth Hurts'
p125
S','
I183
tp126
tp127
a(I18
g13
tp128
asg35
(lp129
(I0
I1
tp130
a(I1
I2
tp131
a(I2
I3
tp132
a(I3
I4
tp133
a(I4
I5
tp134
a(I5
I11
tp135
a(I6
I6
tp136
a(I7
I7
tp137
a(I8
I8
tp138
a(I9
I8
tp139
a(I10
I14
tp140
a(I11
I6
tp141
a(I12
I7
tp142
a(I13
I8
tp143
a(I14
I8
tp144
a(I15
I9
tp145
a(I16
I10
tp146
a(I17
I10
tp147
a(I18
I14
tp148
asg56
(lp149
(I0
g13
tp150
a(I1
g13
tp151
a(I2
g13
tp152
a(I3
g13
tp153
a(I4
g13
tp154
a(I5
g13
tp155
a(I6
I150
tp156
a(I7
I150
tp157
a(I8
I150
tp158
a(I9
I150
tp159
a(I10
g13
tp160
a(I11
I183
tp161
a(I12
I183
tp162
a(I13
I183
tp163
a(I14
I183
tp164
a(I15
g13
tp165
a(I16
g13
tp166
a(I17
g13
tp167
a(I18
g13
tp168
asg77
(lp169
(I0
g13
tp170
a(I1
g13
tp171
a(I2
g13
tp172
a(I3
g13
tp173
a(I4
g13
tp174
a(I5
g13
tp175
a(I6
VRespect
p176
tp177
a(I7
VRespect
p178
tp179
a(I8
VRespect
p180
tp181
a(I9
VRespect
p182
tp183
a(I10
g13
tp184
a(I11
VTruth Hurts
p185
tp186
a(I12
VTruth Hurts
p187
tp188
a(I13
VTruth Hurts
p189
tp190
a(I14
VTruth Hurts
p191
tp192
a(I15
g13
tp193
a(I16
g13
tp194
a(I17
g13
tp195
a(I18
g13
tp196
asas.