(dp1
S'outputs'
p2
(lp3
S''
aS''
asS'testcases'
p4
(lp5
S'Song(\'Respect\',150).__str__(), "Respect, 150", "testing __str__ with Respect"'
p6
aS'Song(\'Truth Hurts\',183).__str__(), "Truth Hurts, 183", "testing __str__ with Truth Hurts"'
p7
asS'traces'
p8
(lp9
(dp10
S'__return__'
p11
(lp12
(I0
S'myNaN'
p13
tp14
a(I1
g13
tp15
a(I2
g13
tp16
a(I3
g13
tp17
a(I4
g13
tp18
a(I5
g13
tp19
a(I6
g13
tp20
a(I7
g13
tp21
a(I8
g13
tp22
a(I9
Ntp23
a(I10
g13
tp24
a(I11
g13
tp25
a(I12
g13
tp26
a(I13
g13
tp27
a(I14
Ntp28
a(I15
g13
tp29
a(I16
g13
tp30
a(I17
g13
tp31
a(I18
VRespect, 150
p32
tp33
a(I19
g13
tp34
asS'__lineNo__'
p35
(lp36
(I0
I1
tp37
a(I1
I2
tp38
a(I2
I3
tp39
a(I3
I4
tp40
a(I4
I5
tp41
a(I5
I12
tp42
a(I6
I6
tp43
a(I7
I7
tp44
a(I8
I8
tp45
a(I9
I8
tp46
a(I10
I15
tp47
a(I11
I6
tp48
a(I12
I7
tp49
a(I13
I8
tp50
a(I14
I8
tp51
a(I15
I9
tp52
a(I16
I10
tp53
a(I17
I11
tp54
a(I18
I11
tp55
a(I19
I15
tp56
asS'len'
p57
(lp58
(I0
g13
tp59
a(I1
g13
tp60
a(I2
g13
tp61
a(I3
g13
tp62
a(I4
g13
tp63
a(I5
g13
tp64
a(I6
I150
tp65
a(I7
I150
tp66
a(I8
I150
tp67
a(I9
I150
tp68
a(I10
g13
tp69
a(I11
I150
tp70
a(I12
I150
tp71
a(I13
I150
tp72
a(I14
I150
tp73
a(I15
g13
tp74
a(I16
g13
tp75
a(I17
g13
tp76
a(I18
g13
tp77
a(I19
g13
tp78
asS'title'
p79
(lp80
(I0
g13
tp81
a(I1
g13
tp82
a(I2
g13
tp83
a(I3
g13
tp84
a(I4
g13
tp85
a(I5
g13
tp86
a(I6
VRespect
p87
tp88
a(I7
VRespect
p89
tp90
a(I8
VRespect
p91
tp92
a(I9
VRespect
p93
tp94
a(I10
g13
tp95
a(I11
VRespect
p96
tp97
a(I12
VRespect
p98
tp99
a(I13
VRespect
p100
tp101
a(I14
VRespect
p102
tp103
a(I15
g13
tp104
a(I16
g13
tp105
a(I17
g13
tp106
a(I18
g13
tp107
a(I19
g13
tp108
asa(dp109
g11
(lp110
(I0
g13
tp111
a(I1
g13
tp112
a(I2
g13
tp113
a(I3
g13
tp114
a(I4
g13
tp115
a(I5
g13
tp116
a(I6
g13
tp117
a(I7
g13
tp118
a(I8
g13
tp119
a(I9
Ntp120
a(I10
g13
tp121
a(I11
g13
tp122
a(I12
g13
tp123
a(I13
g13
tp124
a(I14
Ntp125
a(I15
g13
tp126
a(I16
g13
tp127
a(I17
g13
tp128
a(I18
VTruth Hurts, 183
p129
tp130
a(I19
g13
tp131
asg35
(lp132
(I0
I1
tp133
a(I1
I2
tp134
a(I2
I3
tp135
a(I3
I4
tp136
a(I4
I5
tp137
a(I5
I12
tp138
a(I6
I6
tp139
a(I7
I7
tp140
a(I8
I8
tp141
a(I9
I8
tp142
a(I10
I15
tp143
a(I11
I6
tp144
a(I12
I7
tp145
a(I13
I8
tp146
a(I14
I8
tp147
a(I15
I9
tp148
a(I16
I10
tp149
a(I17
I11
tp150
a(I18
I11
tp151
a(I19
I15
tp152
asg57
(lp153
(I0
g13
tp154
a(I1
g13
tp155
a(I2
g13
tp156
a(I3
g13
tp157
a(I4
g13
tp158
a(I5
g13
tp159
a(I6
I150
tp160
a(I7
I150
tp161
a(I8
I150
tp162
a(I9
I150
tp163
a(I10
g13
tp164
a(I11
I183
tp165
a(I12
I183
tp166
a(I13
I183
tp167
a(I14
I183
tp168
a(I15
g13
tp169
a(I16
g13
tp170
a(I17
g13
tp171
a(I18
g13
tp172
a(I19
g13
tp173
asg79
(lp174
(I0
g13
tp175
a(I1
g13
tp176
a(I2
g13
tp177
a(I3
g13
tp178
a(I4
g13
tp179
a(I5
g13
tp180
a(I6
VRespect
p181
tp182
a(I7
VRespect
p183
tp184
a(I8
VRespect
p185
tp186
a(I9
VRespect
p187
tp188
a(I10
g13
tp189
a(I11
VTruth Hurts
p190
tp191
a(I12
VTruth Hurts
p192
tp193
a(I13
VTruth Hurts
p194
tp195
a(I14
VTruth Hurts
p196
tp197
a(I15
g13
tp198
a(I16
g13
tp199
a(I17
g13
tp200
a(I18
g13
tp201
a(I19
g13
tp202
asas.