(dp1
S'outputs'
p2
(lp3
S''
aS''
asS'testcases'
p4
(lp5
S'Song(\'Respect\',150).__str__(), "Respect, 150", "testing __str__ with Respect"'
p6
aS'Song(\'Truth Hurts\',183).__str__(), "Truth Hurts, 183", "testing __str__ with Truth Hurts"'
p7
asS'traces'
p8
(lp9
(dp10
S'__return__'
p11
(lp12
(I0
S'myNaN'
p13
tp14
a(I1
g13
tp15
a(I2
g13
tp16
a(I3
g13
tp17
a(I4
g13
tp18
a(I5
g13
tp19
a(I6
g13
tp20
a(I7
g13
tp21
a(I8
g13
tp22
a(I9
g13
tp23
a(I10
g13
tp24
a(I11
g13
tp25
a(I12
Ntp26
a(I13
g13
tp27
a(I14
g13
tp28
a(I15
g13
tp29
a(I16
g13
tp30
a(I17
Ntp31
a(I18
g13
tp32
a(I19
Ntp33
a(I20
g13
tp34
asS'__lineNo__'
p35
(lp36
(I0
I1
tp37
a(I1
I2
tp38
a(I2
I3
tp39
a(I3
I4
tp40
a(I4
I5
tp41
a(I5
I11
tp42
a(I6
I14
tp43
a(I7
I11
tp44
a(I8
I12
tp45
a(I9
I6
tp46
a(I10
I7
tp47
a(I11
I8
tp48
a(I12
I8
tp49
a(I13
I13
tp50
a(I14
I9
tp51
a(I15
I10
tp52
a(I16
I10
tp53
a(I17
I10
tp54
a(I18
I13
tp55
a(I19
I13
tp56
a(I20
I14
tp57
asS'len'
p58
(lp59
(I0
g13
tp60
a(I1
g13
tp61
a(I2
g13
tp62
a(I3
g13
tp63
a(I4
g13
tp64
a(I5
g13
tp65
a(I6
g13
tp66
a(I7
g13
tp67
a(I8
g13
tp68
a(I9
I150
tp69
a(I10
I150
tp70
a(I11
I150
tp71
a(I12
I150
tp72
a(I13
g13
tp73
a(I14
g13
tp74
a(I15
g13
tp75
a(I16
g13
tp76
a(I17
g13
tp77
a(I18
g13
tp78
a(I19
g13
tp79
a(I20
g13
tp80
asS'title'
p81
(lp82
(I0
g13
tp83
a(I1
g13
tp84
a(I2
g13
tp85
a(I3
g13
tp86
a(I4
g13
tp87
a(I5
g13
tp88
a(I6
g13
tp89
a(I7
g13
tp90
a(I8
g13
tp91
a(I9
VRespect
p92
tp93
a(I10
VRespect
p94
tp95
a(I11
VRespect
p96
tp97
a(I12
VRespect
p98
tp99
a(I13
g13
tp100
a(I14
g13
tp101
a(I15
g13
tp102
a(I16
g13
tp103
a(I17
g13
tp104
a(I18
g13
tp105
a(I19
g13
tp106
a(I20
g13
tp107
asa(dp108
g11
(lp109
(I0
g13
tp110
a(I1
g13
tp111
a(I2
g13
tp112
a(I3
g13
tp113
a(I4
g13
tp114
a(I5
g13
tp115
a(I6
g13
tp116
a(I7
g13
tp117
a(I8
g13
tp118
a(I9
g13
tp119
a(I10
g13
tp120
a(I11
g13
tp121
a(I12
Ntp122
a(I13
g13
tp123
a(I14
g13
tp124
a(I15
g13
tp125
a(I16
g13
tp126
a(I17
Ntp127
a(I18
g13
tp128
a(I19
Ntp129
a(I20
g13
tp130
asg35
(lp131
(I0
I1
tp132
a(I1
I2
tp133
a(I2
I3
tp134
a(I3
I4
tp135
a(I4
I5
tp136
a(I5
I11
tp137
a(I6
I14
tp138
a(I7
I11
tp139
a(I8
I12
tp140
a(I9
I6
tp141
a(I10
I7
tp142
a(I11
I8
tp143
a(I12
I8
tp144
a(I13
I13
tp145
a(I14
I9
tp146
a(I15
I10
tp147
a(I16
I10
tp148
a(I17
I10
tp149
a(I18
I13
tp150
a(I19
I13
tp151
a(I20
I14
tp152
asg58
(lp153
(I0
g13
tp154
a(I1
g13
tp155
a(I2
g13
tp156
a(I3
g13
tp157
a(I4
g13
tp158
a(I5
g13
tp159
a(I6
g13
tp160
a(I7
g13
tp161
a(I8
g13
tp162
a(I9
I150
tp163
a(I10
I150
tp164
a(I11
I150
tp165
a(I12
I150
tp166
a(I13
g13
tp167
a(I14
g13
tp168
a(I15
g13
tp169
a(I16
g13
tp170
a(I17
g13
tp171
a(I18
g13
tp172
a(I19
g13
tp173
a(I20
g13
tp174
asg81
(lp175
(I0
g13
tp176
a(I1
g13
tp177
a(I2
g13
tp178
a(I3
g13
tp179
a(I4
g13
tp180
a(I5
g13
tp181
a(I6
g13
tp182
a(I7
g13
tp183
a(I8
g13
tp184
a(I9
VRespect
p185
tp186
a(I10
VRespect
p187
tp188
a(I11
VRespect
p189
tp190
a(I12
VRespect
p191
tp192
a(I13
g13
tp193
a(I14
g13
tp194
a(I15
g13
tp195
a(I16
g13
tp196
a(I17
g13
tp197
a(I18
g13
tp198
a(I19
g13
tp199
a(I20
g13
tp200
asas.