(dp1
S'outputs'
p2
(lp3
S''
aS''
asS'testcases'
p4
(lp5
S'Song(\'Respect\',150).__str__(), "Respect, 150", "testing __str__ with Respect"'
p6
aS'Song(\'Truth Hurts\',183).__str__(), "Truth Hurts, 183", "testing __str__ with Truth Hurts"'
p7
asS'traces'
p8
(lp9
(dp10
S'__return__'
p11
(lp12
(I0
S'myNaN'
p13
tp14
a(I1
g13
tp15
a(I2
g13
tp16
a(I3
g13
tp17
a(I4
g13
tp18
a(I5
g13
tp19
a(I6
g13
tp20
a(I7
g13
tp21
a(I8
g13
tp22
a(I9
Ntp23
a(I10
g13
tp24
a(I11
g13
tp25
a(I12
g13
tp26
a(I13
g13
tp27
a(I14
Ntp28
a(I15
g13
tp29
a(I16
g13
tp30
a(I17
(S'Respect'
p31
c__builtin__
len
p32
ttp33
a(I18
g13
tp34
asS'__lineNo__'
p35
(lp36
(I0
I1
tp37
a(I1
I2
tp38
a(I2
I3
tp39
a(I3
I4
tp40
a(I4
I5
tp41
a(I5
I11
tp42
a(I6
I6
tp43
a(I7
I7
tp44
a(I8
I8
tp45
a(I9
I8
tp46
a(I10
I14
tp47
a(I11
I6
tp48
a(I12
I7
tp49
a(I13
I8
tp50
a(I14
I8
tp51
a(I15
I9
tp52
a(I16
I10
tp53
a(I17
I10
tp54
a(I18
I14
tp55
asS'len'
p56
(lp57
(I0
g13
tp58
a(I1
g13
tp59
a(I2
g13
tp60
a(I3
g13
tp61
a(I4
g13
tp62
a(I5
g13
tp63
a(I6
I150
tp64
a(I7
I150
tp65
a(I8
I150
tp66
a(I9
I150
tp67
a(I10
g13
tp68
a(I11
I150
tp69
a(I12
I150
tp70
a(I13
I150
tp71
a(I14
I150
tp72
a(I15
g13
tp73
a(I16
g13
tp74
a(I17
g13
tp75
a(I18
g13
tp76
asS'title'
p77
(lp78
(I0
g13
tp79
a(I1
g13
tp80
a(I2
g13
tp81
a(I3
g13
tp82
a(I4
g13
tp83
a(I5
g13
tp84
a(I6
VRespect
tp85
a(I7
VRespect
tp86
a(I8
VRespect
tp87
a(I9
VRespect
tp88
a(I10
g13
tp89
a(I11
VRespect
tp90
a(I12
VRespect
tp91
a(I13
VRespect
tp92
a(I14
VRespect
tp93
a(I15
g13
tp94
a(I16
g13
tp95
a(I17
g13
tp96
a(I18
g13
tp97
asa(dp98
g11
(lp99
(I0
g13
tp100
a(I1
g13
tp101
a(I2
g13
tp102
a(I3
g13
tp103
a(I4
g13
tp104
a(I5
g13
tp105
a(I6
g13
tp106
a(I7
g13
tp107
a(I8
g13
tp108
a(I9
Ntp109
a(I10
g13
tp110
a(I11
g13
tp111
a(I12
g13
tp112
a(I13
g13
tp113
a(I14
Ntp114
a(I15
g13
tp115
a(I16
g13
tp116
a(I17
(S'Truth Hurts'
p117
g32
tp118
tp119
a(I18
g13
tp120
asg35
(lp121
(I0
I1
tp122
a(I1
I2
tp123
a(I2
I3
tp124
a(I3
I4
tp125
a(I4
I5
tp126
a(I5
I11
tp127
a(I6
I6
tp128
a(I7
I7
tp129
a(I8
I8
tp130
a(I9
I8
tp131
a(I10
I14
tp132
a(I11
I6
tp133
a(I12
I7
tp134
a(I13
I8
tp135
a(I14
I8
tp136
a(I15
I9
tp137
a(I16
I10
tp138
a(I17
I10
tp139
a(I18
I14
tp140
asg56
(lp141
(I0
g13
tp142
a(I1
g13
tp143
a(I2
g13
tp144
a(I3
g13
tp145
a(I4
g13
tp146
a(I5
g13
tp147
a(I6
I150
tp148
a(I7
I150
tp149
a(I8
I150
tp150
a(I9
I150
tp151
a(I10
g13
tp152
a(I11
I183
tp153
a(I12
I183
tp154
a(I13
I183
tp155
a(I14
I183
tp156
a(I15
g13
tp157
a(I16
g13
tp158
a(I17
g13
tp159
a(I18
g13
tp160
asg77
(lp161
(I0
g13
tp162
a(I1
g13
tp163
a(I2
g13
tp164
a(I3
g13
tp165
a(I4
g13
tp166
a(I5
g13
tp167
a(I6
VRespect
p168
tp169
a(I7
VRespect
p170
tp171
a(I8
VRespect
p172
tp173
a(I9
VRespect
p174
tp175
a(I10
g13
tp176
a(I11
VTruth Hurts
p177
tp178
a(I12
VTruth Hurts
p179
tp180
a(I13
VTruth Hurts
p181
tp182
a(I14
VTruth Hurts
p183
tp184
a(I15
g13
tp185
a(I16
g13
tp186
a(I17
g13
tp187
a(I18
g13
tp188
asas.