(dp1
S'outputs'
p2
(lp3
S''
aS''
asS'testcases'
p4
(lp5
S'Song(\'Respect\',150).__str__(), "Respect, 150", "testing __str__ with Respect"'
p6
aS'Song(\'Truth Hurts\',183).__str__(), "Truth Hurts, 183", "testing __str__ with Truth Hurts"'
p7
asS'traces'
p8
(lp9
(dp10
S'__return__'
p11
(lp12
(I0
S'myNaN'
p13
tp14
a(I1
g13
tp15
a(I2
g13
tp16
a(I3
g13
tp17
a(I4
g13
tp18
a(I5
g13
tp19
a(I6
g13
tp20
a(I7
g13
tp21
a(I8
g13
tp22
a(I9
Ntp23
a(I10
g13
tp24
a(I11
g13
tp25
a(I12
g13
tp26
a(I13
g13
tp27
a(I14
Ntp28
a(I15
g13
tp29
a(I16
g13
tp30
a(I17
(S'Respect'
p31
S'150'
ttp32
a(I18
g13
tp33
asS'__lineNo__'
p34
(lp35
(I0
I1
tp36
a(I1
I2
tp37
a(I2
I3
tp38
a(I3
I4
tp39
a(I4
I5
tp40
a(I5
I11
tp41
a(I6
I6
tp42
a(I7
I7
tp43
a(I8
I8
tp44
a(I9
I8
tp45
a(I10
I14
tp46
a(I11
I6
tp47
a(I12
I7
tp48
a(I13
I8
tp49
a(I14
I8
tp50
a(I15
I9
tp51
a(I16
I10
tp52
a(I17
I10
tp53
a(I18
I14
tp54
asS'len'
p55
(lp56
(I0
g13
tp57
a(I1
g13
tp58
a(I2
g13
tp59
a(I3
g13
tp60
a(I4
g13
tp61
a(I5
g13
tp62
a(I6
I150
tp63
a(I7
I150
tp64
a(I8
I150
tp65
a(I9
I150
tp66
a(I10
g13
tp67
a(I11
I150
tp68
a(I12
I150
tp69
a(I13
I150
tp70
a(I14
I150
tp71
a(I15
g13
tp72
a(I16
g13
tp73
a(I17
g13
tp74
a(I18
g13
tp75
asS'title'
p76
(lp77
(I0
g13
tp78
a(I1
g13
tp79
a(I2
g13
tp80
a(I3
g13
tp81
a(I4
g13
tp82
a(I5
g13
tp83
a(I6
VRespect
tp84
a(I7
VRespect
tp85
a(I8
VRespect
tp86
a(I9
VRespect
tp87
a(I10
g13
tp88
a(I11
VRespect
tp89
a(I12
VRespect
tp90
a(I13
VRespect
tp91
a(I14
VRespect
tp92
a(I15
g13
tp93
a(I16
g13
tp94
a(I17
g13
tp95
a(I18
g13
tp96
asa(dp97
g11
(lp98
(I0
g13
tp99
a(I1
g13
tp100
a(I2
g13
tp101
a(I3
g13
tp102
a(I4
g13
tp103
a(I5
g13
tp104
a(I6
g13
tp105
a(I7
g13
tp106
a(I8
g13
tp107
a(I9
Ntp108
a(I10
g13
tp109
a(I11
g13
tp110
a(I12
g13
tp111
a(I13
g13
tp112
a(I14
Ntp113
a(I15
g13
tp114
a(I16
g13
tp115
a(I17
(S'Truth Hurts'
p116
S'183'
tp117
tp118
a(I18
g13
tp119
asg34
(lp120
(I0
I1
tp121
a(I1
I2
tp122
a(I2
I3
tp123
a(I3
I4
tp124
a(I4
I5
tp125
a(I5
I11
tp126
a(I6
I6
tp127
a(I7
I7
tp128
a(I8
I8
tp129
a(I9
I8
tp130
a(I10
I14
tp131
a(I11
I6
tp132
a(I12
I7
tp133
a(I13
I8
tp134
a(I14
I8
tp135
a(I15
I9
tp136
a(I16
I10
tp137
a(I17
I10
tp138
a(I18
I14
tp139
asg55
(lp140
(I0
g13
tp141
a(I1
g13
tp142
a(I2
g13
tp143
a(I3
g13
tp144
a(I4
g13
tp145
a(I5
g13
tp146
a(I6
I150
tp147
a(I7
I150
tp148
a(I8
I150
tp149
a(I9
I150
tp150
a(I10
g13
tp151
a(I11
I183
tp152
a(I12
I183
tp153
a(I13
I183
tp154
a(I14
I183
tp155
a(I15
g13
tp156
a(I16
g13
tp157
a(I17
g13
tp158
a(I18
g13
tp159
asg76
(lp160
(I0
g13
tp161
a(I1
g13
tp162
a(I2
g13
tp163
a(I3
g13
tp164
a(I4
g13
tp165
a(I5
g13
tp166
a(I6
VRespect
p167
tp168
a(I7
VRespect
p169
tp170
a(I8
VRespect
p171
tp172
a(I9
VRespect
p173
tp174
a(I10
g13
tp175
a(I11
VTruth Hurts
p176
tp177
a(I12
VTruth Hurts
p178
tp179
a(I13
VTruth Hurts
p180
tp181
a(I14
VTruth Hurts
p182
tp183
a(I15
g13
tp184
a(I16
g13
tp185
a(I17
g13
tp186
a(I18
g13
tp187
asas.