(dp1
S'outputs'
p2
(lp3
S''
aS''
asS'testcases'
p4
(lp5
S'Song(\'Respect\',150).__str__(), "Respect, 150", "testing __str__ with Respect"'
p6
aS'Song(\'Truth Hurts\',183).__str__(), "Truth Hurts, 183", "testing __str__ with Truth Hurts"'
p7
asS'traces'
p8
(lp9
(dp10
S'__return__'
p11
(lp12
(I0
S'myNaN'
p13
tp14
a(I1
g13
tp15
a(I2
g13
tp16
a(I3
g13
tp17
a(I4
g13
tp18
a(I5
g13
tp19
a(I6
g13
tp20
a(I7
g13
tp21
a(I8
g13
tp22
a(I9
Ntp23
a(I10
g13
tp24
a(I11
g13
tp25
a(I12
g13
tp26
a(I13
g13
tp27
a(I14
Ntp28
a(I15
g13
tp29
a(I16
g13
tp30
a(I17
VRespect ,150
p31
tp32
a(I18
g13
tp33
asS'__lineNo__'
p34
(lp35
(I0
I1
tp36
a(I1
I2
tp37
a(I2
I3
tp38
a(I3
I4
tp39
a(I4
I5
tp40
a(I5
I11
tp41
a(I6
I6
tp42
a(I7
I7
tp43
a(I8
I8
tp44
a(I9
I8
tp45
a(I10
I14
tp46
a(I11
I6
tp47
a(I12
I7
tp48
a(I13
I8
tp49
a(I14
I8
tp50
a(I15
I9
tp51
a(I16
I10
tp52
a(I17
I10
tp53
a(I18
I14
tp54
asS'len'
p55
(lp56
(I0
g13
tp57
a(I1
g13
tp58
a(I2
g13
tp59
a(I3
g13
tp60
a(I4
g13
tp61
a(I5
g13
tp62
a(I6
I150
tp63
a(I7
I150
tp64
a(I8
I150
tp65
a(I9
I150
tp66
a(I10
g13
tp67
a(I11
I150
tp68
a(I12
I150
tp69
a(I13
I150
tp70
a(I14
I150
tp71
a(I15
g13
tp72
a(I16
g13
tp73
a(I17
g13
tp74
a(I18
g13
tp75
asS'title'
p76
(lp77
(I0
g13
tp78
a(I1
g13
tp79
a(I2
g13
tp80
a(I3
g13
tp81
a(I4
g13
tp82
a(I5
g13
tp83
a(I6
VRespect
p84
tp85
a(I7
VRespect
p86
tp87
a(I8
VRespect
p88
tp89
a(I9
VRespect
p90
tp91
a(I10
g13
tp92
a(I11
VRespect
p93
tp94
a(I12
VRespect
p95
tp96
a(I13
VRespect
p97
tp98
a(I14
VRespect
p99
tp100
a(I15
g13
tp101
a(I16
g13
tp102
a(I17
g13
tp103
a(I18
g13
tp104
asa(dp105
g11
(lp106
(I0
g13
tp107
a(I1
g13
tp108
a(I2
g13
tp109
a(I3
g13
tp110
a(I4
g13
tp111
a(I5
g13
tp112
a(I6
g13
tp113
a(I7
g13
tp114
a(I8
g13
tp115
a(I9
Ntp116
a(I10
g13
tp117
a(I11
g13
tp118
a(I12
g13
tp119
a(I13
g13
tp120
a(I14
Ntp121
a(I15
g13
tp122
a(I16
g13
tp123
a(I17
VTruth Hurts ,183
p124
tp125
a(I18
g13
tp126
asg34
(lp127
(I0
I1
tp128
a(I1
I2
tp129
a(I2
I3
tp130
a(I3
I4
tp131
a(I4
I5
tp132
a(I5
I11
tp133
a(I6
I6
tp134
a(I7
I7
tp135
a(I8
I8
tp136
a(I9
I8
tp137
a(I10
I14
tp138
a(I11
I6
tp139
a(I12
I7
tp140
a(I13
I8
tp141
a(I14
I8
tp142
a(I15
I9
tp143
a(I16
I10
tp144
a(I17
I10
tp145
a(I18
I14
tp146
asg55
(lp147
(I0
g13
tp148
a(I1
g13
tp149
a(I2
g13
tp150
a(I3
g13
tp151
a(I4
g13
tp152
a(I5
g13
tp153
a(I6
I150
tp154
a(I7
I150
tp155
a(I8
I150
tp156
a(I9
I150
tp157
a(I10
g13
tp158
a(I11
I183
tp159
a(I12
I183
tp160
a(I13
I183
tp161
a(I14
I183
tp162
a(I15
g13
tp163
a(I16
g13
tp164
a(I17
g13
tp165
a(I18
g13
tp166
asg76
(lp167
(I0
g13
tp168
a(I1
g13
tp169
a(I2
g13
tp170
a(I3
g13
tp171
a(I4
g13
tp172
a(I5
g13
tp173
a(I6
VRespect
p174
tp175
a(I7
VRespect
p176
tp177
a(I8
VRespect
p178
tp179
a(I9
VRespect
p180
tp181
a(I10
g13
tp182
a(I11
VTruth Hurts
p183
tp184
a(I12
VTruth Hurts
p185
tp186
a(I13
VTruth Hurts
p187
tp188
a(I14
VTruth Hurts
p189
tp190
a(I15
g13
tp191
a(I16
g13
tp192
a(I17
g13
tp193
a(I18
g13
tp194
asas.