(dp1
S'outputs'
p2
(lp3
S''
aS''
asS'testcases'
p4
(lp5
S'Song(\'Respect\',150).__str__(), "Respect, 150", "testing __str__ with Respect"'
p6
aS'Song(\'Truth Hurts\',183).__str__(), "Truth Hurts, 183", "testing __str__ with Truth Hurts"'
p7
asS'traces'
p8
(lp9
(dp10
S'__return__'
p11
(lp12
(I0
S'myNaN'
p13
tp14
a(I1
g13
tp15
a(I2
g13
tp16
a(I3
g13
tp17
a(I4
g13
tp18
a(I5
g13
tp19
a(I6
g13
tp20
a(I7
g13
tp21
a(I8
g13
tp22
a(I9
Ntp23
a(I10
g13
tp24
asS'__lineNo__'
p25
(lp26
(I0
I1
tp27
a(I1
I2
tp28
a(I2
I3
tp29
a(I3
I4
tp30
a(I4
I5
tp31
a(I5
I11
tp32
a(I6
I6
tp33
a(I7
I7
tp34
a(I8
I7
tp35
a(I9
I7
tp36
a(I10
I11
tp37
asS'length'
p38
(lp39
(I0
g13
tp40
a(I1
g13
tp41
a(I2
g13
tp42
a(I3
g13
tp43
a(I4
g13
tp44
a(I5
g13
tp45
a(I6
I150
tp46
a(I7
I150
tp47
a(I8
I150
tp48
a(I9
I150
tp49
a(I10
g13
tp50
asS'title'
p51
(lp52
(I0
g13
tp53
a(I1
g13
tp54
a(I2
g13
tp55
a(I3
g13
tp56
a(I4
g13
tp57
a(I5
g13
tp58
a(I6
VRespect
p59
tp60
a(I7
VRespect
p61
tp62
a(I8
VRespect
p63
tp64
a(I9
VRespect
p65
tp66
a(I10
g13
tp67
asa(dp68
g11
(lp69
(I0
g13
tp70
a(I1
g13
tp71
a(I2
g13
tp72
a(I3
g13
tp73
a(I4
g13
tp74
a(I5
g13
tp75
a(I6
g13
tp76
a(I7
g13
tp77
a(I8
g13
tp78
a(I9
Ntp79
a(I10
g13
tp80
asg25
(lp81
(I0
I1
tp82
a(I1
I2
tp83
a(I2
I3
tp84
a(I3
I4
tp85
a(I4
I5
tp86
a(I5
I11
tp87
a(I6
I6
tp88
a(I7
I7
tp89
a(I8
I7
tp90
a(I9
I7
tp91
a(I10
I11
tp92
asg38
(lp93
(I0
g13
tp94
a(I1
g13
tp95
a(I2
g13
tp96
a(I3
g13
tp97
a(I4
g13
tp98
a(I5
g13
tp99
a(I6
I150
tp100
a(I7
I150
tp101
a(I8
I150
tp102
a(I9
I150
tp103
a(I10
g13
tp104
asg51
(lp105
(I0
g13
tp106
a(I1
g13
tp107
a(I2
g13
tp108
a(I3
g13
tp109
a(I4
g13
tp110
a(I5
g13
tp111
a(I6
VRespect
p112
tp113
a(I7
VRespect
p114
tp115
a(I8
VRespect
p116
tp117
a(I9
VRespect
p118
tp119
a(I10
g13
tp120
asas.