(dp1
S'outputs'
p2
(lp3
S''
aS''
asS'testcases'
p4
(lp5
S'Song(\'Respect\',150).__str__(), "Respect, 150", "testing __str__ with Respect"'
p6
aS'Song(\'Truth Hurts\',183).__str__(), "Truth Hurts, 183", "testing __str__ with Truth Hurts"'
p7
asS'traces'
p8
(lp9
(dp10
S'__return__'
p11
(lp12
(I0
S'myNaN'
p13
tp14
a(I1
g13
tp15
a(I2
g13
tp16
a(I3
g13
tp17
a(I4
g13
tp18
a(I5
g13
tp19
a(I6
g13
tp20
a(I7
g13
tp21
a(I8
g13
tp22
a(I9
Ntp23
a(I10
g13
tp24
a(I11
g13
tp25
a(I12
g13
tp26
a(I13
g13
tp27
a(I14
Ntp28
a(I15
g13
tp29
a(I16
g13
tp30
a(I17
g13
tp31
a(I18
Ntp32
a(I19
g13
tp33
asS'__lineNo__'
p34
(lp35
(I0
I1
tp36
a(I1
I2
tp37
a(I2
I3
tp38
a(I3
I4
tp39
a(I4
I5
tp40
a(I5
I11
tp41
a(I6
I6
tp42
a(I7
I7
tp43
a(I8
I8
tp44
a(I9
I8
tp45
a(I10
I14
tp46
a(I11
I6
tp47
a(I12
I7
tp48
a(I13
I8
tp49
a(I14
I8
tp50
a(I15
I9
tp51
a(I16
I10
tp52
a(I17
I10
tp53
a(I18
I10
tp54
a(I19
I14
tp55
asS'len'
p56
(lp57
(I0
g13
tp58
a(I1
g13
tp59
a(I2
g13
tp60
a(I3
g13
tp61
a(I4
g13
tp62
a(I5
g13
tp63
a(I6
I150
tp64
a(I7
I150
tp65
a(I8
I150
tp66
a(I9
I150
tp67
a(I10
g13
tp68
a(I11
I150
tp69
a(I12
I150
tp70
a(I13
I150
tp71
a(I14
I150
tp72
a(I15
g13
tp73
a(I16
g13
tp74
a(I17
g13
tp75
a(I18
g13
tp76
a(I19
g13
tp77
asS'title'
p78
(lp79
(I0
g13
tp80
a(I1
g13
tp81
a(I2
g13
tp82
a(I3
g13
tp83
a(I4
g13
tp84
a(I5
g13
tp85
a(I6
VRespect
p86
tp87
a(I7
VRespect
p88
tp89
a(I8
VRespect
p90
tp91
a(I9
VRespect
p92
tp93
a(I10
g13
tp94
a(I11
VRespect
p95
tp96
a(I12
VRespect
p97
tp98
a(I13
VRespect
p99
tp100
a(I14
VRespect
p101
tp102
a(I15
g13
tp103
a(I16
g13
tp104
a(I17
g13
tp105
a(I18
g13
tp106
a(I19
g13
tp107
asa(dp108
g11
(lp109
(I0
g13
tp110
a(I1
g13
tp111
a(I2
g13
tp112
a(I3
g13
tp113
a(I4
g13
tp114
a(I5
g13
tp115
a(I6
g13
tp116
a(I7
g13
tp117
a(I8
g13
tp118
a(I9
Ntp119
a(I10
g13
tp120
a(I11
g13
tp121
a(I12
g13
tp122
a(I13
g13
tp123
a(I14
Ntp124
a(I15
g13
tp125
a(I16
g13
tp126
a(I17
g13
tp127
a(I18
Ntp128
a(I19
g13
tp129
asg34
(lp130
(I0
I1
tp131
a(I1
I2
tp132
a(I2
I3
tp133
a(I3
I4
tp134
a(I4
I5
tp135
a(I5
I11
tp136
a(I6
I6
tp137
a(I7
I7
tp138
a(I8
I8
tp139
a(I9
I8
tp140
a(I10
I14
tp141
a(I11
I6
tp142
a(I12
I7
tp143
a(I13
I8
tp144
a(I14
I8
tp145
a(I15
I9
tp146
a(I16
I10
tp147
a(I17
I10
tp148
a(I18
I10
tp149
a(I19
I14
tp150
asg56
(lp151
(I0
g13
tp152
a(I1
g13
tp153
a(I2
g13
tp154
a(I3
g13
tp155
a(I4
g13
tp156
a(I5
g13
tp157
a(I6
I150
tp158
a(I7
I150
tp159
a(I8
I150
tp160
a(I9
I150
tp161
a(I10
g13
tp162
a(I11
I183
tp163
a(I12
I183
tp164
a(I13
I183
tp165
a(I14
I183
tp166
a(I15
g13
tp167
a(I16
g13
tp168
a(I17
g13
tp169
a(I18
g13
tp170
a(I19
g13
tp171
asg78
(lp172
(I0
g13
tp173
a(I1
g13
tp174
a(I2
g13
tp175
a(I3
g13
tp176
a(I4
g13
tp177
a(I5
g13
tp178
a(I6
VRespect
p179
tp180
a(I7
VRespect
p181
tp182
a(I8
VRespect
tp183
a(I9
VRespect
tp184
a(I10
g13
tp185
a(I11
VTruth Hurts
tp186
a(I12
VTruth Hurts
tp187
a(I13
VTruth Hurts
tp188
a(I14
VTruth Hurts
tp189
a(I15
g13
tp190
a(I16
g13
tp191
a(I17
g13
tp192
a(I18
g13
tp193
a(I19
g13
tp194
asas.