(dp1
S'outputs'
p2
(lp3
V('Respect', ',', 150)\u000a('Respect', ',', 150)\u000a('Respect', ',', 150)\u000a('Respect', ',', 150)\u000a('Respect', ',', 150)\u000a('Respect', ',', 150)\u000a('Respect', ',', 150)\u000a('Respect', ',', 150)\u000a('Respect', ',', 150)\u000a('Respect', ',', 150)\u000a('Respect', ',', 150)\u000a('Respect', ',', 150)\u000a('Respect', ',', 150)\u000a('Respect', ',', 150)\u000a('Respect', ',', 150)\u000a
p4
aV('Respect', ',', 150)\u000a('Respect', ',', 150)\u000a('Respect', ',', 150)\u000a('Respect', ',', 150)\u000a('Respect', ',', 150)\u000a('Truth Hurts', ',', 183)\u000a('Respect', ',', 150)\u000a('Truth Hurts', ',', 183)\u000a('Respect', ',', 150)\u000a('Truth Hurts', ',', 183)\u000a('Respect', ',', 150)\u000a('Truth Hurts', ',', 183)\u000a('Truth Hurts', ',', 183)\u000a('Respect', ',', 150)\u000a('Respect', ',', 150)\u000a
p5
asS'testcases'
p6
(lp7
S'Song(\'Respect\',150).__str__(), "Respect, 150", "testing __str__ with Respect"'
p8
aS'Song(\'Truth Hurts\',183).__str__(), "Truth Hurts, 183", "testing __str__ with Truth Hurts"'
p9
asS'traces'
p10
(lp11
(dp12
S'__return__'
p13
(lp14
(I0
S'myNaN'
p15
tp16
a(I1
g15
tp17
a(I2
g15
tp18
a(I3
g15
tp19
a(I4
g15
tp20
a(I5
g15
tp21
a(I6
g15
tp22
a(I7
g15
tp23
a(I8
g15
tp24
a(I9
Ntp25
a(I10
g15
tp26
a(I11
g15
tp27
a(I12
g15
tp28
a(I13
g15
tp29
a(I14
Ntp30
a(I15
g15
tp31
a(I16
g15
tp32
a(I17
Ntp33
a(I18
g15
tp34
asS'__lineNo__'
p35
(lp36
(I0
I1
tp37
a(I1
I2
tp38
a(I2
I3
tp39
a(I3
I4
tp40
a(I4
I5
tp41
a(I5
I11
tp42
a(I6
I6
tp43
a(I7
I7
tp44
a(I8
I8
tp45
a(I9
I8
tp46
a(I10
I14
tp47
a(I11
I6
tp48
a(I12
I7
tp49
a(I13
I8
tp50
a(I14
I8
tp51
a(I15
I9
tp52
a(I16
I10
tp53
a(I17
I10
tp54
a(I18
I14
tp55
asS'len'
p56
(lp57
(I0
g15
tp58
a(I1
g15
tp59
a(I2
g15
tp60
a(I3
g15
tp61
a(I4
g15
tp62
a(I5
g15
tp63
a(I6
I150
tp64
a(I7
I150
tp65
a(I8
I150
tp66
a(I9
I150
tp67
a(I10
g15
tp68
a(I11
I150
tp69
a(I12
I150
tp70
a(I13
I150
tp71
a(I14
I150
tp72
a(I15
g15
tp73
a(I16
g15
tp74
a(I17
g15
tp75
a(I18
g15
tp76
asS'title'
p77
(lp78
(I0
g15
tp79
a(I1
g15
tp80
a(I2
g15
tp81
a(I3
g15
tp82
a(I4
g15
tp83
a(I5
g15
tp84
a(I6
VRespect
tp85
a(I7
VRespect
tp86
a(I8
VRespect
tp87
a(I9
VRespect
tp88
a(I10
g15
tp89
a(I11
VRespect
tp90
a(I12
VRespect
tp91
a(I13
VRespect
tp92
a(I14
VRespect
tp93
a(I15
g15
tp94
a(I16
g15
tp95
a(I17
g15
tp96
a(I18
g15
tp97
asa(dp98
g13
(lp99
(I0
g15
tp100
a(I1
g15
tp101
a(I2
g15
tp102
a(I3
g15
tp103
a(I4
g15
tp104
a(I5
g15
tp105
a(I6
g15
tp106
a(I7
g15
tp107
a(I8
g15
tp108
a(I9
Ntp109
a(I10
g15
tp110
a(I11
g15
tp111
a(I12
g15
tp112
a(I13
g15
tp113
a(I14
Ntp114
a(I15
g15
tp115
a(I16
g15
tp116
a(I17
Ntp117
a(I18
g15
tp118
asg35
(lp119
(I0
I1
tp120
a(I1
I2
tp121
a(I2
I3
tp122
a(I3
I4
tp123
a(I4
I5
tp124
a(I5
I11
tp125
a(I6
I6
tp126
a(I7
I7
tp127
a(I8
I8
tp128
a(I9
I8
tp129
a(I10
I14
tp130
a(I11
I6
tp131
a(I12
I7
tp132
a(I13
I8
tp133
a(I14
I8
tp134
a(I15
I9
tp135
a(I16
I10
tp136
a(I17
I10
tp137
a(I18
I14
tp138
asg56
(lp139
(I0
g15
tp140
a(I1
g15
tp141
a(I2
g15
tp142
a(I3
g15
tp143
a(I4
g15
tp144
a(I5
g15
tp145
a(I6
I150
tp146
a(I7
I150
tp147
a(I8
I150
tp148
a(I9
I150
tp149
a(I10
g15
tp150
a(I11
I183
tp151
a(I12
I183
tp152
a(I13
I183
tp153
a(I14
I183
tp154
a(I15
g15
tp155
a(I16
g15
tp156
a(I17
g15
tp157
a(I18
g15
tp158
asg77
(lp159
(I0
g15
tp160
a(I1
g15
tp161
a(I2
g15
tp162
a(I3
g15
tp163
a(I4
g15
tp164
a(I5
g15
tp165
a(I6
VRespect
p166
tp167
a(I7
VRespect
p168
tp169
a(I8
VRespect
p170
tp171
a(I9
VRespect
p172
tp173
a(I10
g15
tp174
a(I11
VTruth Hurts
p175
tp176
a(I12
VTruth Hurts
p177
tp178
a(I13
VTruth Hurts
p179
tp180
a(I14
VTruth Hurts
p181
tp182
a(I15
g15
tp183
a(I16
g15
tp184
a(I17
g15
tp185
a(I18
g15
tp186
asas.