(dp1
S'outputs'
p2
(lp3
S''
aS''
asS'testcases'
p4
(lp5
S'Song(\'Respect\',150).__str__(), "Respect, 150", "testing __str__ with Respect"'
p6
aS'Song(\'Truth Hurts\',183).__str__(), "Truth Hurts, 183", "testing __str__ with Truth Hurts"'
p7
asS'traces'
p8
(lp9
(dp10
S'__return__'
p11
(lp12
(I0
S'myNaN'
p13
tp14
a(I1
g13
tp15
a(I2
g13
tp16
a(I3
g13
tp17
a(I4
g13
tp18
a(I5
g13
tp19
a(I6
g13
tp20
a(I7
g13
tp21
a(I8
g13
tp22
a(I9
Ntp23
a(I10
g13
tp24
asS'__lineNo__'
p25
(lp26
(I0
I1
tp27
a(I1
I2
tp28
a(I2
I3
tp29
a(I3
I4
tp30
a(I4
I5
tp31
a(I5
I11
tp32
a(I6
I6
tp33
a(I7
I7
tp34
a(I8
I7
tp35
a(I9
I7
tp36
a(I10
I11
tp37
asS'len'
p38
(lp39
(I0
g13
tp40
a(I1
g13
tp41
a(I2
g13
tp42
a(I3
g13
tp43
a(I4
g13
tp44
a(I5
g13
tp45
a(I6
I150
tp46
a(I7
I150
tp47
a(I8
I150
tp48
a(I9
I150
tp49
a(I10
g13
tp50
asS'title'
p51
(lp52
(I0
g13
tp53
a(I1
g13
tp54
a(I2
g13
tp55
a(I3
g13
tp56
a(I4
g13
tp57
a(I5
g13
tp58
a(I6
VRespect
tp59
a(I7
VRespect
tp60
a(I8
VRespect
tp61
a(I9
VRespect
tp62
a(I10
g13
tp63
asa(dp64
g11
(lp65
(I0
g13
tp66
a(I1
g13
tp67
a(I2
g13
tp68
a(I3
g13
tp69
a(I4
g13
tp70
a(I5
g13
tp71
a(I6
g13
tp72
a(I7
g13
tp73
a(I8
g13
tp74
a(I9
Ntp75
a(I10
g13
tp76
asg25
(lp77
(I0
I1
tp78
a(I1
I2
tp79
a(I2
I3
tp80
a(I3
I4
tp81
a(I4
I5
tp82
a(I5
I11
tp83
a(I6
I6
tp84
a(I7
I7
tp85
a(I8
I7
tp86
a(I9
I7
tp87
a(I10
I11
tp88
asg38
(lp89
(I0
g13
tp90
a(I1
g13
tp91
a(I2
g13
tp92
a(I3
g13
tp93
a(I4
g13
tp94
a(I5
g13
tp95
a(I6
I150
tp96
a(I7
I150
tp97
a(I8
I150
tp98
a(I9
I150
tp99
a(I10
g13
tp100
asg51
(lp101
(I0
g13
tp102
a(I1
g13
tp103
a(I2
g13
tp104
a(I3
g13
tp105
a(I4
g13
tp106
a(I5
g13
tp107
a(I6
VRespect
p108
tp109
a(I7
VRespect
p110
tp111
a(I8
VRespect
p112
tp113
a(I9
VRespect
p114
tp115
a(I10
g13
tp116
asas.