(dp1
S'outputs'
p2
(lp3
S''
aS''
asS'testcases'
p4
(lp5
S'Song(\'Respect\',150).__str__(), "Respect, 150", "testing __str__ with Respect"'
p6
aS'Song(\'Truth Hurts\',183).__str__(), "Truth Hurts, 183", "testing __str__ with Truth Hurts"'
p7
asS'traces'
p8
(lp9
(dp10
S'__return__'
p11
(lp12
(I0
S'myNaN'
p13
tp14
a(I1
g13
tp15
a(I2
g13
tp16
a(I3
g13
tp17
a(I4
g13
tp18
a(I5
g13
tp19
a(I6
g13
tp20
a(I7
g13
tp21
a(I8
g13
tp22
a(I9
Ntp23
a(I10
g13
tp24
a(I11
g13
tp25
a(I12
g13
tp26
a(I13
g13
tp27
a(I14
Ntp28
a(I15
g13
tp29
a(I16
g13
tp30
a(I17
(S'self.title +'
p31
S' + self.len'
p32
tp33
tp34
a(I18
g13
tp35
asS'__lineNo__'
p36
(lp37
(I0
I1
tp38
a(I1
I2
tp39
a(I2
I3
tp40
a(I3
I4
tp41
a(I4
I5
tp42
a(I5
I11
tp43
a(I6
I6
tp44
a(I7
I7
tp45
a(I8
I8
tp46
a(I9
I8
tp47
a(I10
I14
tp48
a(I11
I6
tp49
a(I12
I7
tp50
a(I13
I8
tp51
a(I14
I8
tp52
a(I15
I9
tp53
a(I16
I10
tp54
a(I17
I10
tp55
a(I18
I14
tp56
asS'len'
p57
(lp58
(I0
g13
tp59
a(I1
g13
tp60
a(I2
g13
tp61
a(I3
g13
tp62
a(I4
g13
tp63
a(I5
g13
tp64
a(I6
I150
tp65
a(I7
I150
tp66
a(I8
I150
tp67
a(I9
I150
tp68
a(I10
g13
tp69
a(I11
I150
tp70
a(I12
I150
tp71
a(I13
I150
tp72
a(I14
I150
tp73
a(I15
g13
tp74
a(I16
g13
tp75
a(I17
g13
tp76
a(I18
g13
tp77
asS'title'
p78
(lp79
(I0
g13
tp80
a(I1
g13
tp81
a(I2
g13
tp82
a(I3
g13
tp83
a(I4
g13
tp84
a(I5
g13
tp85
a(I6
VRespect
p86
tp87
a(I7
VRespect
p88
tp89
a(I8
VRespect
p90
tp91
a(I9
VRespect
p92
tp93
a(I10
g13
tp94
a(I11
VRespect
p95
tp96
a(I12
VRespect
p97
tp98
a(I13
VRespect
p99
tp100
a(I14
VRespect
p101
tp102
a(I15
g13
tp103
a(I16
g13
tp104
a(I17
g13
tp105
a(I18
g13
tp106
asa(dp107
g11
(lp108
(I0
g13
tp109
a(I1
g13
tp110
a(I2
g13
tp111
a(I3
g13
tp112
a(I4
g13
tp113
a(I5
g13
tp114
a(I6
g13
tp115
a(I7
g13
tp116
a(I8
g13
tp117
a(I9
Ntp118
a(I10
g13
tp119
a(I11
g13
tp120
a(I12
g13
tp121
a(I13
g13
tp122
a(I14
Ntp123
a(I15
g13
tp124
a(I16
g13
tp125
a(I17
(S'self.title +'
p126
S' + self.len'
p127
tp128
tp129
a(I18
g13
tp130
asg36
(lp131
(I0
I1
tp132
a(I1
I2
tp133
a(I2
I3
tp134
a(I3
I4
tp135
a(I4
I5
tp136
a(I5
I11
tp137
a(I6
I6
tp138
a(I7
I7
tp139
a(I8
I8
tp140
a(I9
I8
tp141
a(I10
I14
tp142
a(I11
I6
tp143
a(I12
I7
tp144
a(I13
I8
tp145
a(I14
I8
tp146
a(I15
I9
tp147
a(I16
I10
tp148
a(I17
I10
tp149
a(I18
I14
tp150
asg57
(lp151
(I0
g13
tp152
a(I1
g13
tp153
a(I2
g13
tp154
a(I3
g13
tp155
a(I4
g13
tp156
a(I5
g13
tp157
a(I6
I150
tp158
a(I7
I150
tp159
a(I8
I150
tp160
a(I9
I150
tp161
a(I10
g13
tp162
a(I11
I183
tp163
a(I12
I183
tp164
a(I13
I183
tp165
a(I14
I183
tp166
a(I15
g13
tp167
a(I16
g13
tp168
a(I17
g13
tp169
a(I18
g13
tp170
asg78
(lp171
(I0
g13
tp172
a(I1
g13
tp173
a(I2
g13
tp174
a(I3
g13
tp175
a(I4
g13
tp176
a(I5
g13
tp177
a(I6
VRespect
p178
tp179
a(I7
VRespect
p180
tp181
a(I8
VRespect
p182
tp183
a(I9
VRespect
p184
tp185
a(I10
g13
tp186
a(I11
VTruth Hurts
p187
tp188
a(I12
VTruth Hurts
p189
tp190
a(I13
VTruth Hurts
p191
tp192
a(I14
VTruth Hurts
p193
tp194
a(I15
g13
tp195
a(I16
g13
tp196
a(I17
g13
tp197
a(I18
g13
tp198
asas.