(dp1
S'outputs'
p2
(lp3
S''
aS''
asS'testcases'
p4
(lp5
S'Song(\'Respect\',150).__str__(), "Respect, 150", "testing __str__ with Respect"'
p6
aS'Song(\'Truth Hurts\',183).__str__(), "Truth Hurts, 183", "testing __str__ with Truth Hurts"'
p7
asS'traces'
p8
(lp9
(dp10
S'__return__'
p11
(lp12
(I0
S'myNaN'
p13
tp14
a(I1
g13
tp15
a(I2
g13
tp16
a(I3
g13
tp17
a(I4
g13
tp18
a(I5
g13
tp19
a(I6
g13
tp20
a(I7
g13
tp21
a(I8
g13
tp22
a(I9
Ntp23
a(I10
g13
tp24
a(I11
g13
tp25
a(I12
g13
tp26
a(I13
g13
tp27
a(I14
Ntp28
a(I15
g13
tp29
a(I16
g13
tp30
a(I17
g13
tp31
a(I18
Ntp32
a(I19
g13
tp33
asS'__lineNo__'
p34
(lp35
(I0
I1
tp36
a(I1
I2
tp37
a(I2
I3
tp38
a(I3
I4
tp39
a(I4
I5
tp40
a(I5
I11
tp41
a(I6
I6
tp42
a(I7
I7
tp43
a(I8
I8
tp44
a(I9
I8
tp45
a(I10
I14
tp46
a(I11
I6
tp47
a(I12
I7
tp48
a(I13
I8
tp49
a(I14
I8
tp50
a(I15
I9
tp51
a(I16
I10
tp52
a(I17
I10
tp53
a(I18
I10
tp54
a(I19
I14
tp55
asS'tittle'
p56
(lp57
(I0
g13
tp58
a(I1
g13
tp59
a(I2
g13
tp60
a(I3
g13
tp61
a(I4
g13
tp62
a(I5
g13
tp63
a(I6
VRespect
p64
tp65
a(I7
VRespect
p66
tp67
a(I8
VRespect
p68
tp69
a(I9
VRespect
p70
tp71
a(I10
g13
tp72
a(I11
VRespect
p73
tp74
a(I12
VRespect
p75
tp76
a(I13
VRespect
p77
tp78
a(I14
VRespect
p79
tp80
a(I15
g13
tp81
a(I16
g13
tp82
a(I17
g13
tp83
a(I18
g13
tp84
a(I19
g13
tp85
asS'len'
p86
(lp87
(I0
g13
tp88
a(I1
g13
tp89
a(I2
g13
tp90
a(I3
g13
tp91
a(I4
g13
tp92
a(I5
g13
tp93
a(I6
I150
tp94
a(I7
I150
tp95
a(I8
I150
tp96
a(I9
I150
tp97
a(I10
g13
tp98
a(I11
I150
tp99
a(I12
I150
tp100
a(I13
I150
tp101
a(I14
I150
tp102
a(I15
g13
tp103
a(I16
g13
tp104
a(I17
g13
tp105
a(I18
g13
tp106
a(I19
g13
tp107
asa(dp108
g11
(lp109
(I0
g13
tp110
a(I1
g13
tp111
a(I2
g13
tp112
a(I3
g13
tp113
a(I4
g13
tp114
a(I5
g13
tp115
a(I6
g13
tp116
a(I7
g13
tp117
a(I8
g13
tp118
a(I9
Ntp119
a(I10
g13
tp120
a(I11
g13
tp121
a(I12
g13
tp122
a(I13
g13
tp123
a(I14
Ntp124
a(I15
g13
tp125
a(I16
g13
tp126
a(I17
g13
tp127
a(I18
Ntp128
a(I19
g13
tp129
asg34
(lp130
(I0
I1
tp131
a(I1
I2
tp132
a(I2
I3
tp133
a(I3
I4
tp134
a(I4
I5
tp135
a(I5
I11
tp136
a(I6
I6
tp137
a(I7
I7
tp138
a(I8
I8
tp139
a(I9
I8
tp140
a(I10
I14
tp141
a(I11
I6
tp142
a(I12
I7
tp143
a(I13
I8
tp144
a(I14
I8
tp145
a(I15
I9
tp146
a(I16
I10
tp147
a(I17
I10
tp148
a(I18
I10
tp149
a(I19
I14
tp150
asg56
(lp151
(I0
g13
tp152
a(I1
g13
tp153
a(I2
g13
tp154
a(I3
g13
tp155
a(I4
g13
tp156
a(I5
g13
tp157
a(I6
VRespect
p158
tp159
a(I7
VRespect
p160
tp161
a(I8
VRespect
p162
tp163
a(I9
VRespect
p164
tp165
a(I10
g13
tp166
a(I11
VTruth Hurts
p167
tp168
a(I12
VTruth Hurts
p169
tp170
a(I13
VTruth Hurts
p171
tp172
a(I14
VTruth Hurts
p173
tp174
a(I15
g13
tp175
a(I16
g13
tp176
a(I17
g13
tp177
a(I18
g13
tp178
a(I19
g13
tp179
asg86
(lp180
(I0
g13
tp181
a(I1
g13
tp182
a(I2
g13
tp183
a(I3
g13
tp184
a(I4
g13
tp185
a(I5
g13
tp186
a(I6
I150
tp187
a(I7
I150
tp188
a(I8
I150
tp189
a(I9
I150
tp190
a(I10
g13
tp191
a(I11
I183
tp192
a(I12
I183
tp193
a(I13
I183
tp194
a(I14
I183
tp195
a(I15
g13
tp196
a(I16
g13
tp197
a(I17
g13
tp198
a(I18
g13
tp199
a(I19
g13
tp200
asas.