(dp1
S'outputs'
p2
(lp3
S''
aS''
asS'testcases'
p4
(lp5
S'Song(\'Respect\',150).__str__(), "Respect, 150", "testing __str__ with Respect"'
p6
aS'Song(\'Truth Hurts\',183).__str__(), "Truth Hurts, 183", "testing __str__ with Truth Hurts"'
p7
asS'traces'
p8
(lp9
(dp10
S'__return__'
p11
(lp12
(I0
S'myNaN'
p13
tp14
a(I1
g13
tp15
a(I2
g13
tp16
a(I3
g13
tp17
a(I4
g13
tp18
a(I5
g13
tp19
a(I6
g13
tp20
a(I7
g13
tp21
a(I8
g13
tp22
a(I9
Ntp23
a(I10
g13
tp24
a(I11
g13
tp25
a(I12
g13
tp26
a(I13
g13
tp27
a(I14
Ntp28
a(I15
g13
tp29
asS'__lineNo__'
p30
(lp31
(I0
I1
tp32
a(I1
I2
tp33
a(I2
I3
tp34
a(I3
I4
tp35
a(I4
I5
tp36
a(I5
I9
tp37
a(I6
I6
tp38
a(I7
I7
tp39
a(I8
I8
tp40
a(I9
I8
tp41
a(I10
I12
tp42
a(I11
I6
tp43
a(I12
I7
tp44
a(I13
I8
tp45
a(I14
I8
tp46
a(I15
I12
tp47
asS'len'
p48
(lp49
(I0
g13
tp50
a(I1
g13
tp51
a(I2
g13
tp52
a(I3
g13
tp53
a(I4
g13
tp54
a(I5
g13
tp55
a(I6
I150
tp56
a(I7
I150
tp57
a(I8
I150
tp58
a(I9
I150
tp59
a(I10
g13
tp60
a(I11
I150
tp61
a(I12
I150
tp62
a(I13
I150
tp63
a(I14
I150
tp64
a(I15
g13
tp65
asS'title'
p66
(lp67
(I0
g13
tp68
a(I1
g13
tp69
a(I2
g13
tp70
a(I3
g13
tp71
a(I4
g13
tp72
a(I5
g13
tp73
a(I6
VRespect
p74
tp75
a(I7
VRespect
p76
tp77
a(I8
VRespect
p78
tp79
a(I9
VRespect
p80
tp81
a(I10
g13
tp82
a(I11
VRespect
p83
tp84
a(I12
VRespect
p85
tp86
a(I13
VRespect
p87
tp88
a(I14
VRespect
p89
tp90
a(I15
g13
tp91
asa(dp92
g11
(lp93
(I0
g13
tp94
a(I1
g13
tp95
a(I2
g13
tp96
a(I3
g13
tp97
a(I4
g13
tp98
a(I5
g13
tp99
a(I6
g13
tp100
a(I7
g13
tp101
a(I8
g13
tp102
a(I9
Ntp103
a(I10
g13
tp104
a(I11
g13
tp105
a(I12
g13
tp106
a(I13
g13
tp107
a(I14
Ntp108
a(I15
g13
tp109
asg30
(lp110
(I0
I1
tp111
a(I1
I2
tp112
a(I2
I3
tp113
a(I3
I4
tp114
a(I4
I5
tp115
a(I5
I9
tp116
a(I6
I6
tp117
a(I7
I7
tp118
a(I8
I8
tp119
a(I9
I8
tp120
a(I10
I12
tp121
a(I11
I6
tp122
a(I12
I7
tp123
a(I13
I8
tp124
a(I14
I8
tp125
a(I15
I12
tp126
asg48
(lp127
(I0
g13
tp128
a(I1
g13
tp129
a(I2
g13
tp130
a(I3
g13
tp131
a(I4
g13
tp132
a(I5
g13
tp133
a(I6
I150
tp134
a(I7
I150
tp135
a(I8
I150
tp136
a(I9
I150
tp137
a(I10
g13
tp138
a(I11
I183
tp139
a(I12
I183
tp140
a(I13
I183
tp141
a(I14
I183
tp142
a(I15
g13
tp143
asg66
(lp144
(I0
g13
tp145
a(I1
g13
tp146
a(I2
g13
tp147
a(I3
g13
tp148
a(I4
g13
tp149
a(I5
g13
tp150
a(I6
VRespect
p151
tp152
a(I7
VRespect
p153
tp154
a(I8
VRespect
p155
tp156
a(I9
VRespect
p157
tp158
a(I10
g13
tp159
a(I11
VTruth Hurts
p160
tp161
a(I12
VTruth Hurts
p162
tp163
a(I13
VTruth Hurts
p164
tp165
a(I14
VTruth Hurts
p166
tp167
a(I15
g13
tp168
asas.