(dp1
S'outputs'
p2
(lp3
S''
aS''
asS'testcases'
p4
(lp5
S'Song(\'Respect\',150).__str__(), "Respect, 150", "testing __str__ with Respect"'
p6
aS'Song(\'Truth Hurts\',183).__str__(), "Truth Hurts, 183", "testing __str__ with Truth Hurts"'
p7
asS'traces'
p8
(lp9
(dp10
S'__lineNo__'
p11
(lp12
(I0
I1
tp13
a(I1
I2
tp14
a(I2
I3
tp15
a(I3
I4
tp16
a(I4
I5
tp17
a(I5
I10
tp18
a(I6
I10
tp19
asa(dp20
g11
(lp21
(I0
I1
tp22
a(I1
I2
tp23
a(I2
I3
tp24
a(I3
I4
tp25
a(I4
I5
tp26
a(I5
I10
tp27
a(I6
I10
tp28
asas.