(dp1
S'outputs'
p2
(lp3
S''
aS''
asS'testcases'
p4
(lp5
S'Song(\'Respect\',150).__str__(), "Respect, 150", "testing __str__ with Respect"'
p6
aS'Song(\'Truth Hurts\',183).__str__(), "Truth Hurts, 183", "testing __str__ with Truth Hurts"'
p7
asS'traces'
p8
(lp9
(dp10
S'__return__'
p11
(lp12
(I0
S'myNaN'
p13
tp14
a(I1
g13
tp15
a(I2
g13
tp16
a(I3
g13
tp17
a(I4
g13
tp18
a(I5
g13
tp19
a(I6
g13
tp20
a(I7
g13
tp21
a(I8
g13
tp22
a(I9
g13
tp23
a(I10
(S'Respect'
p24
I150
ttp25
a(I11
g13
tp26
asS'__lineNo__'
p27
(lp28
(I0
I1
tp29
a(I1
I2
tp30
a(I2
I3
tp31
a(I3
I4
tp32
a(I4
I5
tp33
a(I5
I10
tp34
a(I6
I6
tp35
a(I7
I7
tp36
a(I8
I8
tp37
a(I9
I9
tp38
a(I10
I9
tp39
a(I11
I10
tp40
asS'len'
p41
(lp42
(I0
g13
tp43
a(I1
g13
tp44
a(I2
g13
tp45
a(I3
g13
tp46
a(I4
g13
tp47
a(I5
g13
tp48
a(I6
I150
tp49
a(I7
I150
tp50
a(I8
I150
tp51
a(I9
I150
tp52
a(I10
I150
tp53
a(I11
g13
tp54
asS'title'
p55
(lp56
(I0
g13
tp57
a(I1
g13
tp58
a(I2
g13
tp59
a(I3
g13
tp60
a(I4
g13
tp61
a(I5
g13
tp62
a(I6
VRespect
tp63
a(I7
VRespect
tp64
a(I8
VRespect
tp65
a(I9
VRespect
tp66
a(I10
VRespect
tp67
a(I11
g13
tp68
asa(dp69
g11
(lp70
(I0
g13
tp71
a(I1
g13
tp72
a(I2
g13
tp73
a(I3
g13
tp74
a(I4
g13
tp75
a(I5
g13
tp76
a(I6
g13
tp77
a(I7
g13
tp78
a(I8
g13
tp79
a(I9
g13
tp80
a(I10
(g24
I150
tp81
tp82
a(I11
g13
tp83
asg27
(lp84
(I0
I1
tp85
a(I1
I2
tp86
a(I2
I3
tp87
a(I3
I4
tp88
a(I4
I5
tp89
a(I5
I10
tp90
a(I6
I6
tp91
a(I7
I7
tp92
a(I8
I8
tp93
a(I9
I9
tp94
a(I10
I9
tp95
a(I11
I10
tp96
asg41
(lp97
(I0
g13
tp98
a(I1
g13
tp99
a(I2
g13
tp100
a(I3
g13
tp101
a(I4
g13
tp102
a(I5
g13
tp103
a(I6
I150
tp104
a(I7
I150
tp105
a(I8
I150
tp106
a(I9
I150
tp107
a(I10
I150
tp108
a(I11
g13
tp109
asg55
(lp110
(I0
g13
tp111
a(I1
g13
tp112
a(I2
g13
tp113
a(I3
g13
tp114
a(I4
g13
tp115
a(I5
g13
tp116
a(I6
VRespect
p117
tp118
a(I7
VRespect
p119
tp120
a(I8
VRespect
p121
tp122
a(I9
VRespect
p123
tp124
a(I10
VRespect
p125
tp126
a(I11
g13
tp127
asas.