(dp1
S'outputs'
p2
(lp3
S''
aS''
asS'testcases'
p4
(lp5
S'Song(\'Respect\',150).__str__(), "Respect, 150", "testing __str__ with Respect"'
p6
aS'Song(\'Truth Hurts\',183).__str__(), "Truth Hurts, 183", "testing __str__ with Truth Hurts"'
p7
asS'traces'
p8
(lp9
(dp10
S'__return__'
p11
(lp12
(I0
S'myNaN'
p13
tp14
a(I1
g13
tp15
a(I2
g13
tp16
a(I3
g13
tp17
a(I4
g13
tp18
a(I5
g13
tp19
a(I6
g13
tp20
a(I7
g13
tp21
a(I8
g13
tp22
a(I9
Ntp23
a(I10
g13
tp24
a(I11
g13
tp25
a(I12
VRespect,150
tp26
a(I13
g13
tp27
asS'__lineNo__'
p28
(lp29
(I0
I1
tp30
a(I1
I2
tp31
a(I2
I3
tp32
a(I3
I4
tp33
a(I4
I5
tp34
a(I5
I13
tp35
a(I6
I6
tp36
a(I7
I7
tp37
a(I8
I8
tp38
a(I9
I8
tp39
a(I10
I9
tp40
a(I11
I10
tp41
a(I12
I10
tp42
a(I13
I13
tp43
asS'len'
p44
(lp45
(I0
g13
tp46
a(I1
g13
tp47
a(I2
g13
tp48
a(I3
g13
tp49
a(I4
g13
tp50
a(I5
g13
tp51
a(I6
I150
tp52
a(I7
I150
tp53
a(I8
I150
tp54
a(I9
I150
tp55
a(I10
g13
tp56
a(I11
g13
tp57
a(I12
g13
tp58
a(I13
g13
tp59
asS'title'
p60
(lp61
(I0
g13
tp62
a(I1
g13
tp63
a(I2
g13
tp64
a(I3
g13
tp65
a(I4
g13
tp66
a(I5
g13
tp67
a(I6
VRespect
tp68
a(I7
VRespect
tp69
a(I8
VRespect
tp70
a(I9
VRespect
tp71
a(I10
g13
tp72
a(I11
g13
tp73
a(I12
g13
tp74
a(I13
g13
tp75
asa(dp76
g11
(lp77
(I0
g13
tp78
a(I1
g13
tp79
a(I2
g13
tp80
a(I3
g13
tp81
a(I4
g13
tp82
a(I5
g13
tp83
a(I6
g13
tp84
a(I7
g13
tp85
a(I8
g13
tp86
a(I9
Ntp87
a(I10
g13
tp88
a(I11
g13
tp89
a(I12
VTruth Hurts,183
p90
tp91
a(I13
g13
tp92
asg28
(lp93
(I0
I1
tp94
a(I1
I2
tp95
a(I2
I3
tp96
a(I3
I4
tp97
a(I4
I5
tp98
a(I5
I13
tp99
a(I6
I6
tp100
a(I7
I7
tp101
a(I8
I8
tp102
a(I9
I8
tp103
a(I10
I9
tp104
a(I11
I10
tp105
a(I12
I10
tp106
a(I13
I13
tp107
asg44
(lp108
(I0
g13
tp109
a(I1
g13
tp110
a(I2
g13
tp111
a(I3
g13
tp112
a(I4
g13
tp113
a(I5
g13
tp114
a(I6
I183
tp115
a(I7
I183
tp116
a(I8
I183
tp117
a(I9
I183
tp118
a(I10
g13
tp119
a(I11
g13
tp120
a(I12
g13
tp121
a(I13
g13
tp122
asg60
(lp123
(I0
g13
tp124
a(I1
g13
tp125
a(I2
g13
tp126
a(I3
g13
tp127
a(I4
g13
tp128
a(I5
g13
tp129
a(I6
VTruth Hurts
p130
tp131
a(I7
VTruth Hurts
p132
tp133
a(I8
VTruth Hurts
p134
tp135
a(I9
VTruth Hurts
p136
tp137
a(I10
g13
tp138
a(I11
g13
tp139
a(I12
g13
tp140
a(I13
g13
tp141
asas.