(dp1
S'outputs'
p2
(lp3
S''
aS''
asS'testcases'
p4
(lp5
S'Song(\'Respect\',150).__str__(), "Respect, 150", "testing __str__ with Respect"'
p6
aS'Song(\'Truth Hurts\',183).__str__(), "Truth Hurts, 183", "testing __str__ with Truth Hurts"'
p7
asS'traces'
p8
(lp9
(dp10
S'__return__'
p11
(lp12
(I0
S'myNaN'
p13
tp14
a(I1
g13
tp15
a(I2
g13
tp16
a(I3
g13
tp17
a(I4
g13
tp18
a(I5
g13
tp19
a(I6
g13
tp20
a(I7
g13
tp21
a(I8
g13
tp22
a(I9
Ntp23
a(I10
g13
tp24
a(I11
g13
tp25
a(I12
g13
tp26
a(I13
g13
tp27
a(I14
Ntp28
a(I15
g13
tp29
a(I16
g13
tp30
a(I17
g13
tp31
a(I18
VRespect 150
tp32
a(I19
g13
tp33
asS'__lineNo__'
p34
(lp35
(I0
I1
tp36
a(I1
I2
tp37
a(I2
I3
tp38
a(I3
I4
tp39
a(I4
I5
tp40
a(I5
I12
tp41
a(I6
I6
tp42
a(I7
I7
tp43
a(I8
I8
tp44
a(I9
I8
tp45
a(I10
I15
tp46
a(I11
I6
tp47
a(I12
I7
tp48
a(I13
I8
tp49
a(I14
I8
tp50
a(I15
I9
tp51
a(I16
I10
tp52
a(I17
I11
tp53
a(I18
I11
tp54
a(I19
I15
tp55
asS'length'
p56
(lp57
(I0
g13
tp58
a(I1
g13
tp59
a(I2
g13
tp60
a(I3
g13
tp61
a(I4
g13
tp62
a(I5
g13
tp63
a(I6
g13
tp64
a(I7
g13
tp65
a(I8
g13
tp66
a(I9
g13
tp67
a(I10
g13
tp68
a(I11
g13
tp69
a(I12
g13
tp70
a(I13
g13
tp71
a(I14
g13
tp72
a(I15
g13
tp73
a(I16
g13
tp74
a(I17
V150
tp75
a(I18
V150
tp76
a(I19
g13
tp77
asS'len'
p78
(lp79
(I0
g13
tp80
a(I1
g13
tp81
a(I2
g13
tp82
a(I3
g13
tp83
a(I4
g13
tp84
a(I5
g13
tp85
a(I6
I150
tp86
a(I7
I150
tp87
a(I8
I150
tp88
a(I9
I150
tp89
a(I10
g13
tp90
a(I11
I150
tp91
a(I12
I150
tp92
a(I13
I150
tp93
a(I14
I150
tp94
a(I15
g13
tp95
a(I16
g13
tp96
a(I17
g13
tp97
a(I18
g13
tp98
a(I19
g13
tp99
asS'title'
p100
(lp101
(I0
g13
tp102
a(I1
g13
tp103
a(I2
g13
tp104
a(I3
g13
tp105
a(I4
g13
tp106
a(I5
g13
tp107
a(I6
VRespect
tp108
a(I7
VRespect
tp109
a(I8
VRespect
tp110
a(I9
VRespect
tp111
a(I10
g13
tp112
a(I11
VRespect
tp113
a(I12
VRespect
tp114
a(I13
VRespect
tp115
a(I14
VRespect
tp116
a(I15
g13
tp117
a(I16
g13
tp118
a(I17
g13
tp119
a(I18
g13
tp120
a(I19
g13
tp121
asa(dp122
g11
(lp123
(I0
g13
tp124
a(I1
g13
tp125
a(I2
g13
tp126
a(I3
g13
tp127
a(I4
g13
tp128
a(I5
g13
tp129
a(I6
g13
tp130
a(I7
g13
tp131
a(I8
g13
tp132
a(I9
Ntp133
a(I10
g13
tp134
a(I11
g13
tp135
a(I12
g13
tp136
a(I13
g13
tp137
a(I14
Ntp138
a(I15
g13
tp139
a(I16
g13
tp140
a(I17
g13
tp141
a(I18
VTruth Hurts 183
p142
tp143
a(I19
g13
tp144
asg34
(lp145
(I0
I1
tp146
a(I1
I2
tp147
a(I2
I3
tp148
a(I3
I4
tp149
a(I4
I5
tp150
a(I5
I12
tp151
a(I6
I6
tp152
a(I7
I7
tp153
a(I8
I8
tp154
a(I9
I8
tp155
a(I10
I15
tp156
a(I11
I6
tp157
a(I12
I7
tp158
a(I13
I8
tp159
a(I14
I8
tp160
a(I15
I9
tp161
a(I16
I10
tp162
a(I17
I11
tp163
a(I18
I11
tp164
a(I19
I15
tp165
asg56
(lp166
(I0
g13
tp167
a(I1
g13
tp168
a(I2
g13
tp169
a(I3
g13
tp170
a(I4
g13
tp171
a(I5
g13
tp172
a(I6
g13
tp173
a(I7
g13
tp174
a(I8
g13
tp175
a(I9
g13
tp176
a(I10
g13
tp177
a(I11
g13
tp178
a(I12
g13
tp179
a(I13
g13
tp180
a(I14
g13
tp181
a(I15
g13
tp182
a(I16
g13
tp183
a(I17
V183
p184
tp185
a(I18
V183
p186
tp187
a(I19
g13
tp188
asg78
(lp189
(I0
g13
tp190
a(I1
g13
tp191
a(I2
g13
tp192
a(I3
g13
tp193
a(I4
g13
tp194
a(I5
g13
tp195
a(I6
I150
tp196
a(I7
I150
tp197
a(I8
I150
tp198
a(I9
I150
tp199
a(I10
g13
tp200
a(I11
I183
tp201
a(I12
I183
tp202
a(I13
I183
tp203
a(I14
I183
tp204
a(I15
g13
tp205
a(I16
g13
tp206
a(I17
g13
tp207
a(I18
g13
tp208
a(I19
g13
tp209
asg100
(lp210
(I0
g13
tp211
a(I1
g13
tp212
a(I2
g13
tp213
a(I3
g13
tp214
a(I4
g13
tp215
a(I5
g13
tp216
a(I6
VRespect
p217
tp218
a(I7
VRespect
p219
tp220
a(I8
VRespect
p221
tp222
a(I9
VRespect
p223
tp224
a(I10
g13
tp225
a(I11
VTruth Hurts
p226
tp227
a(I12
VTruth Hurts
p228
tp229
a(I13
VTruth Hurts
p230
tp231
a(I14
VTruth Hurts
p232
tp233
a(I15
g13
tp234
a(I16
g13
tp235
a(I17
g13
tp236
a(I18
g13
tp237
a(I19
g13
tp238
asas.