(dp1
S'outputs'
p2
(lp3
S''
aS''
asS'testcases'
p4
(lp5
S'Song(\'Respect\',150).__str__(), "Respect, 150", "testing __str__ with Respect"'
p6
aS'Song(\'Truth Hurts\',183).__str__(), "Truth Hurts, 183", "testing __str__ with Truth Hurts"'
p7
asS'traces'
p8
(lp9
(dp10
S'__return__'
p11
(lp12
(I0
S'myNaN'
p13
tp14
a(I1
g13
tp15
a(I2
g13
tp16
a(I3
g13
tp17
a(I4
g13
tp18
a(I5
g13
tp19
a(I6
g13
tp20
a(I7
g13
tp21
a(I8
g13
tp22
a(I9
Ntp23
a(I10
g13
tp24
a(I11
g13
tp25
a(I12
g13
tp26
a(I13
g13
tp27
a(I14
Ntp28
a(I15
g13
tp29
asS'__lineNo__'
p30
(lp31
(I0
I1
tp32
a(I1
I2
tp33
a(I2
I3
tp34
a(I3
I4
tp35
a(I4
I5
tp36
a(I5
I9
tp37
a(I6
I6
tp38
a(I7
I7
tp39
a(I8
I8
tp40
a(I9
I8
tp41
a(I10
I12
tp42
a(I11
I6
tp43
a(I12
I7
tp44
a(I13
I8
tp45
a(I14
I8
tp46
a(I15
I12
tp47
asS'len'
p48
(lp49
(I0
g13
tp50
a(I1
g13
tp51
a(I2
g13
tp52
a(I3
g13
tp53
a(I4
g13
tp54
a(I5
g13
tp55
a(I6
I150
tp56
a(I7
I150
tp57
a(I8
I150
tp58
a(I9
I150
tp59
a(I10
g13
tp60
a(I11
I150
tp61
a(I12
I150
tp62
a(I13
I150
tp63
a(I14
I150
tp64
a(I15
g13
tp65
asS'title'
p66
(lp67
(I0
g13
tp68
a(I1
g13
tp69
a(I2
g13
tp70
a(I3
g13
tp71
a(I4
g13
tp72
a(I5
g13
tp73
a(I6
VRespect
tp74
a(I7
VRespect
tp75
a(I8
VRespect
tp76
a(I9
VRespect
tp77
a(I10
g13
tp78
a(I11
VRespect
tp79
a(I12
VRespect
tp80
a(I13
VRespect
tp81
a(I14
VRespect
tp82
a(I15
g13
tp83
asa(dp84
g11
(lp85
(I0
g13
tp86
a(I1
g13
tp87
a(I2
g13
tp88
a(I3
g13
tp89
a(I4
g13
tp90
a(I5
g13
tp91
a(I6
g13
tp92
a(I7
g13
tp93
a(I8
g13
tp94
a(I9
Ntp95
a(I10
g13
tp96
a(I11
g13
tp97
a(I12
g13
tp98
a(I13
g13
tp99
a(I14
Ntp100
a(I15
g13
tp101
asg30
(lp102
(I0
I1
tp103
a(I1
I2
tp104
a(I2
I3
tp105
a(I3
I4
tp106
a(I4
I5
tp107
a(I5
I9
tp108
a(I6
I6
tp109
a(I7
I7
tp110
a(I8
I8
tp111
a(I9
I8
tp112
a(I10
I12
tp113
a(I11
I6
tp114
a(I12
I7
tp115
a(I13
I8
tp116
a(I14
I8
tp117
a(I15
I12
tp118
asg48
(lp119
(I0
g13
tp120
a(I1
g13
tp121
a(I2
g13
tp122
a(I3
g13
tp123
a(I4
g13
tp124
a(I5
g13
tp125
a(I6
I150
tp126
a(I7
I150
tp127
a(I8
I150
tp128
a(I9
I150
tp129
a(I10
g13
tp130
a(I11
I183
tp131
a(I12
I183
tp132
a(I13
I183
tp133
a(I14
I183
tp134
a(I15
g13
tp135
asg66
(lp136
(I0
g13
tp137
a(I1
g13
tp138
a(I2
g13
tp139
a(I3
g13
tp140
a(I4
g13
tp141
a(I5
g13
tp142
a(I6
VRespect
p143
tp144
a(I7
VRespect
p145
tp146
a(I8
VRespect
p147
tp148
a(I9
VRespect
p149
tp150
a(I10
g13
tp151
a(I11
VTruth Hurts
p152
tp153
a(I12
VTruth Hurts
p154
tp155
a(I13
VTruth Hurts
p156
tp157
a(I14
VTruth Hurts
p158
tp159
a(I15
g13
tp160
asas.