(dp1
S'outputs'
p2
(lp3
S''
aS''
asS'testcases'
p4
(lp5
S'Song(\'Respect\',150).__str__(), "Respect, 150", "testing __str__ with Respect"'
p6
aS'Song(\'Truth Hurts\',183).__str__(), "Truth Hurts, 183", "testing __str__ with Truth Hurts"'
p7
asS'traces'
p8
(lp9
(dp10
S'__return__'
p11
(lp12
(I0
S'myNaN'
p13
tp14
a(I1
g13
tp15
a(I2
g13
tp16
a(I3
g13
tp17
a(I4
g13
tp18
a(I5
g13
tp19
a(I6
g13
tp20
a(I7
g13
tp21
a(I8
g13
tp22
a(I9
Ntp23
a(I10
g13
tp24
a(I11
g13
tp25
a(I12
g13
tp26
a(I13
g13
tp27
a(I14
Ntp28
a(I15
g13
tp29
a(I16
g13
tp30
a(I17
VRespect, 150
tp31
a(I18
g13
tp32
asS'__lineNo__'
p33
(lp34
(I0
I1
tp35
a(I1
I2
tp36
a(I2
I3
tp37
a(I3
I4
tp38
a(I4
I5
tp39
a(I5
I11
tp40
a(I6
I6
tp41
a(I7
I7
tp42
a(I8
I8
tp43
a(I9
I8
tp44
a(I10
I14
tp45
a(I11
I6
tp46
a(I12
I7
tp47
a(I13
I8
tp48
a(I14
I8
tp49
a(I15
I9
tp50
a(I16
I10
tp51
a(I17
I10
tp52
a(I18
I14
tp53
asS'leng'
p54
(lp55
(I0
g13
tp56
a(I1
g13
tp57
a(I2
g13
tp58
a(I3
g13
tp59
a(I4
g13
tp60
a(I5
g13
tp61
a(I6
I150
tp62
a(I7
I150
tp63
a(I8
I150
tp64
a(I9
I150
tp65
a(I10
g13
tp66
a(I11
I150
tp67
a(I12
I150
tp68
a(I13
I150
tp69
a(I14
I150
tp70
a(I15
g13
tp71
a(I16
g13
tp72
a(I17
g13
tp73
a(I18
g13
tp74
asS'title'
p75
(lp76
(I0
g13
tp77
a(I1
g13
tp78
a(I2
g13
tp79
a(I3
g13
tp80
a(I4
g13
tp81
a(I5
g13
tp82
a(I6
VRespect
tp83
a(I7
VRespect
tp84
a(I8
VRespect
tp85
a(I9
VRespect
tp86
a(I10
g13
tp87
a(I11
VRespect
tp88
a(I12
VRespect
tp89
a(I13
VRespect
tp90
a(I14
VRespect
tp91
a(I15
g13
tp92
a(I16
g13
tp93
a(I17
g13
tp94
a(I18
g13
tp95
asa(dp96
g11
(lp97
(I0
g13
tp98
a(I1
g13
tp99
a(I2
g13
tp100
a(I3
g13
tp101
a(I4
g13
tp102
a(I5
g13
tp103
a(I6
g13
tp104
a(I7
g13
tp105
a(I8
g13
tp106
a(I9
Ntp107
a(I10
g13
tp108
a(I11
g13
tp109
a(I12
g13
tp110
a(I13
g13
tp111
a(I14
Ntp112
a(I15
g13
tp113
a(I16
g13
tp114
a(I17
VTruth Hurts, 183
p115
tp116
a(I18
g13
tp117
asg33
(lp118
(I0
I1
tp119
a(I1
I2
tp120
a(I2
I3
tp121
a(I3
I4
tp122
a(I4
I5
tp123
a(I5
I11
tp124
a(I6
I6
tp125
a(I7
I7
tp126
a(I8
I8
tp127
a(I9
I8
tp128
a(I10
I14
tp129
a(I11
I6
tp130
a(I12
I7
tp131
a(I13
I8
tp132
a(I14
I8
tp133
a(I15
I9
tp134
a(I16
I10
tp135
a(I17
I10
tp136
a(I18
I14
tp137
asg54
(lp138
(I0
g13
tp139
a(I1
g13
tp140
a(I2
g13
tp141
a(I3
g13
tp142
a(I4
g13
tp143
a(I5
g13
tp144
a(I6
I150
tp145
a(I7
I150
tp146
a(I8
I150
tp147
a(I9
I150
tp148
a(I10
g13
tp149
a(I11
I183
tp150
a(I12
I183
tp151
a(I13
I183
tp152
a(I14
I183
tp153
a(I15
g13
tp154
a(I16
g13
tp155
a(I17
g13
tp156
a(I18
g13
tp157
asg75
(lp158
(I0
g13
tp159
a(I1
g13
tp160
a(I2
g13
tp161
a(I3
g13
tp162
a(I4
g13
tp163
a(I5
g13
tp164
a(I6
VRespect
p165
tp166
a(I7
VRespect
p167
tp168
a(I8
VRespect
p169
tp170
a(I9
VRespect
p171
tp172
a(I10
g13
tp173
a(I11
VTruth Hurts
p174
tp175
a(I12
VTruth Hurts
p176
tp177
a(I13
VTruth Hurts
p178
tp179
a(I14
VTruth Hurts
p180
tp181
a(I15
g13
tp182
a(I16
g13
tp183
a(I17
g13
tp184
a(I18
g13
tp185
asas.