(dp1
S'outputs'
p2
(lp3
S''
aS''
asS'testcases'
p4
(lp5
S'Song(\'Respect\',150).__str__(), "Respect, 150", "testing __str__ with Respect"'
p6
aS'Song(\'Truth Hurts\',183).__str__(), "Truth Hurts, 183", "testing __str__ with Truth Hurts"'
p7
asS'traces'
p8
(lp9
(dp10
S'__return__'
p11
(lp12
(I0
S'myNaN'
p13
tp14
a(I1
g13
tp15
a(I2
g13
tp16
a(I3
g13
tp17
a(I4
g13
tp18
a(I5
g13
tp19
a(I6
g13
tp20
a(I7
g13
tp21
a(I8
g13
tp22
a(I9
Ntp23
a(I10
g13
tp24
a(I11
g13
tp25
a(I12
g13
tp26
a(I13
g13
tp27
a(I14
Ntp28
a(I15
g13
tp29
a(I16
g13
tp30
a(I17
g13
tp31
a(I18
VRespect, 150
p32
tp33
a(I19
g13
tp34
asS'__lineNo__'
p35
(lp36
(I0
I1
tp37
a(I1
I2
tp38
a(I2
I3
tp39
a(I3
I4
tp40
a(I4
I5
tp41
a(I5
I12
tp42
a(I6
I6
tp43
a(I7
I7
tp44
a(I8
I8
tp45
a(I9
I8
tp46
a(I10
I15
tp47
a(I11
I6
tp48
a(I12
I7
tp49
a(I13
I8
tp50
a(I14
I8
tp51
a(I15
I9
tp52
a(I16
I10
tp53
a(I17
I11
tp54
a(I18
I11
tp55
a(I19
I15
tp56
asS'length'
p57
(lp58
(I0
g13
tp59
a(I1
g13
tp60
a(I2
g13
tp61
a(I3
g13
tp62
a(I4
g13
tp63
a(I5
g13
tp64
a(I6
g13
tp65
a(I7
g13
tp66
a(I8
g13
tp67
a(I9
g13
tp68
a(I10
g13
tp69
a(I11
g13
tp70
a(I12
g13
tp71
a(I13
g13
tp72
a(I14
g13
tp73
a(I15
g13
tp74
a(I16
g13
tp75
a(I17
V150
p76
tp77
a(I18
V150
p78
tp79
a(I19
g13
tp80
asS'len'
p81
(lp82
(I0
g13
tp83
a(I1
g13
tp84
a(I2
g13
tp85
a(I3
g13
tp86
a(I4
g13
tp87
a(I5
g13
tp88
a(I6
I150
tp89
a(I7
I150
tp90
a(I8
I150
tp91
a(I9
I150
tp92
a(I10
g13
tp93
a(I11
I150
tp94
a(I12
I150
tp95
a(I13
I150
tp96
a(I14
I150
tp97
a(I15
g13
tp98
a(I16
g13
tp99
a(I17
g13
tp100
a(I18
g13
tp101
a(I19
g13
tp102
asS'title'
p103
(lp104
(I0
g13
tp105
a(I1
g13
tp106
a(I2
g13
tp107
a(I3
g13
tp108
a(I4
g13
tp109
a(I5
g13
tp110
a(I6
VRespect
p111
tp112
a(I7
VRespect
p113
tp114
a(I8
VRespect
p115
tp116
a(I9
VRespect
p117
tp118
a(I10
g13
tp119
a(I11
VRespect
p120
tp121
a(I12
VRespect
p122
tp123
a(I13
VRespect
p124
tp125
a(I14
VRespect
p126
tp127
a(I15
g13
tp128
a(I16
g13
tp129
a(I17
g13
tp130
a(I18
g13
tp131
a(I19
g13
tp132
asa(dp133
g11
(lp134
(I0
g13
tp135
a(I1
g13
tp136
a(I2
g13
tp137
a(I3
g13
tp138
a(I4
g13
tp139
a(I5
g13
tp140
a(I6
g13
tp141
a(I7
g13
tp142
a(I8
g13
tp143
a(I9
Ntp144
a(I10
g13
tp145
a(I11
g13
tp146
a(I12
g13
tp147
a(I13
g13
tp148
a(I14
Ntp149
a(I15
g13
tp150
a(I16
g13
tp151
a(I17
g13
tp152
a(I18
VTruth Hurts, 183
p153
tp154
a(I19
g13
tp155
asg35
(lp156
(I0
I1
tp157
a(I1
I2
tp158
a(I2
I3
tp159
a(I3
I4
tp160
a(I4
I5
tp161
a(I5
I12
tp162
a(I6
I6
tp163
a(I7
I7
tp164
a(I8
I8
tp165
a(I9
I8
tp166
a(I10
I15
tp167
a(I11
I6
tp168
a(I12
I7
tp169
a(I13
I8
tp170
a(I14
I8
tp171
a(I15
I9
tp172
a(I16
I10
tp173
a(I17
I11
tp174
a(I18
I11
tp175
a(I19
I15
tp176
asg57
(lp177
(I0
g13
tp178
a(I1
g13
tp179
a(I2
g13
tp180
a(I3
g13
tp181
a(I4
g13
tp182
a(I5
g13
tp183
a(I6
g13
tp184
a(I7
g13
tp185
a(I8
g13
tp186
a(I9
g13
tp187
a(I10
g13
tp188
a(I11
g13
tp189
a(I12
g13
tp190
a(I13
g13
tp191
a(I14
g13
tp192
a(I15
g13
tp193
a(I16
g13
tp194
a(I17
V183
p195
tp196
a(I18
V183
p197
tp198
a(I19
g13
tp199
asg81
(lp200
(I0
g13
tp201
a(I1
g13
tp202
a(I2
g13
tp203
a(I3
g13
tp204
a(I4
g13
tp205
a(I5
g13
tp206
a(I6
I150
tp207
a(I7
I150
tp208
a(I8
I150
tp209
a(I9
I150
tp210
a(I10
g13
tp211
a(I11
I183
tp212
a(I12
I183
tp213
a(I13
I183
tp214
a(I14
I183
tp215
a(I15
g13
tp216
a(I16
g13
tp217
a(I17
g13
tp218
a(I18
g13
tp219
a(I19
g13
tp220
asg103
(lp221
(I0
g13
tp222
a(I1
g13
tp223
a(I2
g13
tp224
a(I3
g13
tp225
a(I4
g13
tp226
a(I5
g13
tp227
a(I6
VRespect
p228
tp229
a(I7
VRespect
p230
tp231
a(I8
VRespect
p232
tp233
a(I9
VRespect
p234
tp235
a(I10
g13
tp236
a(I11
VTruth Hurts
p237
tp238
a(I12
VTruth Hurts
p239
tp240
a(I13
VTruth Hurts
p241
tp242
a(I14
VTruth Hurts
p243
tp244
a(I15
g13
tp245
a(I16
g13
tp246
a(I17
g13
tp247
a(I18
g13
tp248
a(I19
g13
tp249
asas.