(dp1
S'outputs'
p2
(lp3
S''
aS''
asS'testcases'
p4
(lp5
S'Song(\'Respect\',150).__str__(), "Respect, 150", "testing __str__ with Respect"'
p6
aS'Song(\'Truth Hurts\',183).__str__(), "Truth Hurts, 183", "testing __str__ with Truth Hurts"'
p7
asS'traces'
p8
(lp9
(dp10
S'__return__'
p11
(lp12
(I0
S'myNaN'
p13
tp14
a(I1
g13
tp15
a(I2
g13
tp16
a(I3
g13
tp17
a(I4
g13
tp18
a(I5
g13
tp19
a(I6
g13
tp20
a(I7
g13
tp21
a(I8
g13
tp22
a(I9
Ntp23
a(I10
g13
tp24
a(I11
g13
tp25
a(I12
VRespect, 150
p26
tp27
a(I13
g13
tp28
asS'__lineNo__'
p29
(lp30
(I0
I1
tp31
a(I1
I2
tp32
a(I2
I3
tp33
a(I3
I4
tp34
a(I4
I5
tp35
a(I5
I13
tp36
a(I6
I6
tp37
a(I7
I7
tp38
a(I8
I8
tp39
a(I9
I8
tp40
a(I10
I9
tp41
a(I11
I10
tp42
a(I12
I10
tp43
a(I13
I13
tp44
asS'len'
p45
(lp46
(I0
g13
tp47
a(I1
g13
tp48
a(I2
g13
tp49
a(I3
g13
tp50
a(I4
g13
tp51
a(I5
g13
tp52
a(I6
I150
tp53
a(I7
I150
tp54
a(I8
I150
tp55
a(I9
I150
tp56
a(I10
g13
tp57
a(I11
g13
tp58
a(I12
g13
tp59
a(I13
g13
tp60
asS'title'
p61
(lp62
(I0
g13
tp63
a(I1
g13
tp64
a(I2
g13
tp65
a(I3
g13
tp66
a(I4
g13
tp67
a(I5
g13
tp68
a(I6
VRespect
p69
tp70
a(I7
VRespect
p71
tp72
a(I8
VRespect
p73
tp74
a(I9
VRespect
p75
tp76
a(I10
g13
tp77
a(I11
g13
tp78
a(I12
g13
tp79
a(I13
g13
tp80
asa(dp81
g11
(lp82
(I0
g13
tp83
a(I1
g13
tp84
a(I2
g13
tp85
a(I3
g13
tp86
a(I4
g13
tp87
a(I5
g13
tp88
a(I6
g13
tp89
a(I7
g13
tp90
a(I8
g13
tp91
a(I9
Ntp92
a(I10
g13
tp93
a(I11
g13
tp94
a(I12
VTruth Hurts, 183
p95
tp96
a(I13
g13
tp97
asg29
(lp98
(I0
I1
tp99
a(I1
I2
tp100
a(I2
I3
tp101
a(I3
I4
tp102
a(I4
I5
tp103
a(I5
I13
tp104
a(I6
I6
tp105
a(I7
I7
tp106
a(I8
I8
tp107
a(I9
I8
tp108
a(I10
I9
tp109
a(I11
I10
tp110
a(I12
I10
tp111
a(I13
I13
tp112
asg45
(lp113
(I0
g13
tp114
a(I1
g13
tp115
a(I2
g13
tp116
a(I3
g13
tp117
a(I4
g13
tp118
a(I5
g13
tp119
a(I6
I183
tp120
a(I7
I183
tp121
a(I8
I183
tp122
a(I9
I183
tp123
a(I10
g13
tp124
a(I11
g13
tp125
a(I12
g13
tp126
a(I13
g13
tp127
asg61
(lp128
(I0
g13
tp129
a(I1
g13
tp130
a(I2
g13
tp131
a(I3
g13
tp132
a(I4
g13
tp133
a(I5
g13
tp134
a(I6
VTruth Hurts
p135
tp136
a(I7
VTruth Hurts
p137
tp138
a(I8
VTruth Hurts
p139
tp140
a(I9
VTruth Hurts
p141
tp142
a(I10
g13
tp143
a(I11
g13
tp144
a(I12
g13
tp145
a(I13
g13
tp146
asas.