(dp1
S'outputs'
p2
(lp3
VRespect, 150\u000aRespect, 150\u000aRespect, 150\u000aRespect, 150\u000aRespect, 150\u000aRespect, 150\u000aRespect, 150\u000aRespect, 150\u000aRespect, 150\u000aRespect, 150\u000aRespect, 150\u000aRespect, 150\u000aRespect, 150\u000aRespect, 150\u000aRespect, 150\u000a
p4
aVRespect, 150\u000aRespect, 150\u000aRespect, 150\u000aRespect, 150\u000aRespect, 150\u000aTruth Hurts, 183\u000aRespect, 150\u000aTruth Hurts, 183\u000aRespect, 150\u000aTruth Hurts, 183\u000aRespect, 150\u000aTruth Hurts, 183\u000aTruth Hurts, 183\u000aRespect, 150\u000aRespect, 150\u000a
p5
asS'testcases'
p6
(lp7
S'Song(\'Respect\',150).__str__(), "Respect, 150", "testing __str__ with Respect"'
p8
aS'Song(\'Truth Hurts\',183).__str__(), "Truth Hurts, 183", "testing __str__ with Truth Hurts"'
p9
asS'traces'
p10
(lp11
(dp12
S'__return__'
p13
(lp14
(I0
S'myNaN'
p15
tp16
a(I1
g15
tp17
a(I2
g15
tp18
a(I3
g15
tp19
a(I4
g15
tp20
a(I5
g15
tp21
a(I6
g15
tp22
a(I7
g15
tp23
a(I8
g15
tp24
a(I9
Ntp25
a(I10
g15
tp26
a(I11
g15
tp27
a(I12
g15
tp28
a(I13
g15
tp29
a(I14
Ntp30
a(I15
g15
tp31
a(I16
g15
tp32
a(I17
Ntp33
a(I18
g15
tp34
asS'__lineNo__'
p35
(lp36
(I0
I1
tp37
a(I1
I2
tp38
a(I2
I3
tp39
a(I3
I4
tp40
a(I4
I5
tp41
a(I5
I11
tp42
a(I6
I6
tp43
a(I7
I7
tp44
a(I8
I8
tp45
a(I9
I8
tp46
a(I10
I14
tp47
a(I11
I6
tp48
a(I12
I7
tp49
a(I13
I8
tp50
a(I14
I8
tp51
a(I15
I9
tp52
a(I16
I10
tp53
a(I17
I10
tp54
a(I18
I14
tp55
asS'len'
p56
(lp57
(I0
g15
tp58
a(I1
g15
tp59
a(I2
g15
tp60
a(I3
g15
tp61
a(I4
g15
tp62
a(I5
g15
tp63
a(I6
I150
tp64
a(I7
I150
tp65
a(I8
I150
tp66
a(I9
I150
tp67
a(I10
g15
tp68
a(I11
I150
tp69
a(I12
I150
tp70
a(I13
I150
tp71
a(I14
I150
tp72
a(I15
g15
tp73
a(I16
g15
tp74
a(I17
g15
tp75
a(I18
g15
tp76
asS'title'
p77
(lp78
(I0
g15
tp79
a(I1
g15
tp80
a(I2
g15
tp81
a(I3
g15
tp82
a(I4
g15
tp83
a(I5
g15
tp84
a(I6
VRespect
p85
tp86
a(I7
VRespect
p87
tp88
a(I8
VRespect
p89
tp90
a(I9
VRespect
p91
tp92
a(I10
g15
tp93
a(I11
VRespect
p94
tp95
a(I12
VRespect
p96
tp97
a(I13
VRespect
p98
tp99
a(I14
VRespect
p100
tp101
a(I15
g15
tp102
a(I16
g15
tp103
a(I17
g15
tp104
a(I18
g15
tp105
asa(dp106
g13
(lp107
(I0
g15
tp108
a(I1
g15
tp109
a(I2
g15
tp110
a(I3
g15
tp111
a(I4
g15
tp112
a(I5
g15
tp113
a(I6
g15
tp114
a(I7
g15
tp115
a(I8
g15
tp116
a(I9
Ntp117
a(I10
g15
tp118
a(I11
g15
tp119
a(I12
g15
tp120
a(I13
g15
tp121
a(I14
Ntp122
a(I15
g15
tp123
a(I16
g15
tp124
a(I17
Ntp125
a(I18
g15
tp126
asg35
(lp127
(I0
I1
tp128
a(I1
I2
tp129
a(I2
I3
tp130
a(I3
I4
tp131
a(I4
I5
tp132
a(I5
I11
tp133
a(I6
I6
tp134
a(I7
I7
tp135
a(I8
I8
tp136
a(I9
I8
tp137
a(I10
I14
tp138
a(I11
I6
tp139
a(I12
I7
tp140
a(I13
I8
tp141
a(I14
I8
tp142
a(I15
I9
tp143
a(I16
I10
tp144
a(I17
I10
tp145
a(I18
I14
tp146
asg56
(lp147
(I0
g15
tp148
a(I1
g15
tp149
a(I2
g15
tp150
a(I3
g15
tp151
a(I4
g15
tp152
a(I5
g15
tp153
a(I6
I150
tp154
a(I7
I150
tp155
a(I8
I150
tp156
a(I9
I150
tp157
a(I10
g15
tp158
a(I11
I183
tp159
a(I12
I183
tp160
a(I13
I183
tp161
a(I14
I183
tp162
a(I15
g15
tp163
a(I16
g15
tp164
a(I17
g15
tp165
a(I18
g15
tp166
asg77
(lp167
(I0
g15
tp168
a(I1
g15
tp169
a(I2
g15
tp170
a(I3
g15
tp171
a(I4
g15
tp172
a(I5
g15
tp173
a(I6
VRespect
p174
tp175
a(I7
VRespect
p176
tp177
a(I8
VRespect
p178
tp179
a(I9
VRespect
p180
tp181
a(I10
g15
tp182
a(I11
VTruth Hurts
p183
tp184
a(I12
VTruth Hurts
p185
tp186
a(I13
VTruth Hurts
p187
tp188
a(I14
VTruth Hurts
p189
tp190
a(I15
g15
tp191
a(I16
g15
tp192
a(I17
g15
tp193
a(I18
g15
tp194
asas.