(dp1
S'outputs'
p2
(lp3
S''
aS''
asS'testcases'
p4
(lp5
S'Song(\'Respect\',150).__str__(), "Respect, 150", "testing __str__ with Respect"'
p6
aS'Song(\'Truth Hurts\',183).__str__(), "Truth Hurts, 183", "testing __str__ with Truth Hurts"'
p7
asS'traces'
p8
(lp9
(dp10
S'__return__'
p11
(lp12
(I0
S'myNaN'
p13
tp14
a(I1
g13
tp15
a(I2
g13
tp16
a(I3
g13
tp17
a(I4
g13
tp18
a(I5
g13
tp19
a(I6
g13
tp20
a(I7
g13
tp21
a(I8
g13
tp22
a(I9
Ntp23
a(I10
g13
tp24
a(I11
g13
tp25
a(I12
g13
tp26
a(I13
g13
tp27
a(I14
Ntp28
a(I15
g13
tp29
a(I16
g13
tp30
a(I17
g13
tp31
a(I18
Ntp32
a(I19
g13
tp33
asS'__lineNo__'
p34
(lp35
(I0
I1
tp36
a(I1
I2
tp37
a(I2
I3
tp38
a(I3
I4
tp39
a(I4
I5
tp40
a(I5
I11
tp41
a(I6
I6
tp42
a(I7
I7
tp43
a(I8
I8
tp44
a(I9
I8
tp45
a(I10
I14
tp46
a(I11
I6
tp47
a(I12
I7
tp48
a(I13
I8
tp49
a(I14
I8
tp50
a(I15
I9
tp51
a(I16
I10
tp52
a(I17
I10
tp53
a(I18
I10
tp54
a(I19
I14
tp55
asS'num'
p56
(lp57
(I0
g13
tp58
a(I1
g13
tp59
a(I2
g13
tp60
a(I3
g13
tp61
a(I4
g13
tp62
a(I5
g13
tp63
a(I6
I150
tp64
a(I7
I150
tp65
a(I8
I150
tp66
a(I9
I150
tp67
a(I10
g13
tp68
a(I11
I150
tp69
a(I12
I150
tp70
a(I13
I150
tp71
a(I14
I150
tp72
a(I15
g13
tp73
a(I16
g13
tp74
a(I17
g13
tp75
a(I18
g13
tp76
a(I19
g13
tp77
asS'title'
p78
(lp79
(I0
g13
tp80
a(I1
g13
tp81
a(I2
g13
tp82
a(I3
g13
tp83
a(I4
g13
tp84
a(I5
g13
tp85
a(I6
VRespect
tp86
a(I7
VRespect
tp87
a(I8
VRespect
tp88
a(I9
VRespect
tp89
a(I10
g13
tp90
a(I11
VRespect
tp91
a(I12
VRespect
tp92
a(I13
VRespect
tp93
a(I14
VRespect
tp94
a(I15
g13
tp95
a(I16
g13
tp96
a(I17
g13
tp97
a(I18
g13
tp98
a(I19
g13
tp99
asa(dp100
g11
(lp101
(I0
g13
tp102
a(I1
g13
tp103
a(I2
g13
tp104
a(I3
g13
tp105
a(I4
g13
tp106
a(I5
g13
tp107
a(I6
g13
tp108
a(I7
g13
tp109
a(I8
g13
tp110
a(I9
Ntp111
a(I10
g13
tp112
a(I11
g13
tp113
a(I12
g13
tp114
a(I13
g13
tp115
a(I14
Ntp116
a(I15
g13
tp117
a(I16
g13
tp118
a(I17
g13
tp119
a(I18
Ntp120
a(I19
g13
tp121
asg34
(lp122
(I0
I1
tp123
a(I1
I2
tp124
a(I2
I3
tp125
a(I3
I4
tp126
a(I4
I5
tp127
a(I5
I11
tp128
a(I6
I6
tp129
a(I7
I7
tp130
a(I8
I8
tp131
a(I9
I8
tp132
a(I10
I14
tp133
a(I11
I6
tp134
a(I12
I7
tp135
a(I13
I8
tp136
a(I14
I8
tp137
a(I15
I9
tp138
a(I16
I10
tp139
a(I17
I10
tp140
a(I18
I10
tp141
a(I19
I14
tp142
asg56
(lp143
(I0
g13
tp144
a(I1
g13
tp145
a(I2
g13
tp146
a(I3
g13
tp147
a(I4
g13
tp148
a(I5
g13
tp149
a(I6
I150
tp150
a(I7
I150
tp151
a(I8
I150
tp152
a(I9
I150
tp153
a(I10
g13
tp154
a(I11
I183
tp155
a(I12
I183
tp156
a(I13
I183
tp157
a(I14
I183
tp158
a(I15
g13
tp159
a(I16
g13
tp160
a(I17
g13
tp161
a(I18
g13
tp162
a(I19
g13
tp163
asg78
(lp164
(I0
g13
tp165
a(I1
g13
tp166
a(I2
g13
tp167
a(I3
g13
tp168
a(I4
g13
tp169
a(I5
g13
tp170
a(I6
VRespect
p171
tp172
a(I7
VRespect
p173
tp174
a(I8
VRespect
p175
tp176
a(I9
VRespect
p177
tp178
a(I10
g13
tp179
a(I11
VTruth Hurts
p180
tp181
a(I12
VTruth Hurts
p182
tp183
a(I13
VTruth Hurts
p184
tp185
a(I14
VTruth Hurts
p186
tp187
a(I15
g13
tp188
a(I16
g13
tp189
a(I17
g13
tp190
a(I18
g13
tp191
a(I19
g13
tp192
asas.