(dp1
S'outputs'
p2
(lp3
S''
aS''
asS'testcases'
p4
(lp5
S'Song(\'Respect\',150).__str__(), "Respect, 150", "testing __str__ with Respect"'
p6
aS'Song(\'Truth Hurts\',183).__str__(), "Truth Hurts, 183", "testing __str__ with Truth Hurts"'
p7
asS'traces'
p8
(lp9
(dp10
S'__return__'
p11
(lp12
(I0
S'myNaN'
p13
tp14
a(I1
g13
tp15
a(I2
g13
tp16
a(I3
g13
tp17
a(I4
g13
tp18
a(I5
g13
tp19
a(I6
g13
tp20
a(I7
g13
tp21
a(I8
g13
tp22
a(I9
g13
tp23
a(I10
Ntp24
a(I11
g13
tp25
asS'__lineNo__'
p26
(lp27
(I0
I1
tp28
a(I1
I2
tp29
a(I2
I3
tp30
a(I3
I4
tp31
a(I4
I5
tp32
a(I5
I11
tp33
a(I6
I6
tp34
a(I7
I7
tp35
a(I8
I8
tp36
a(I9
I8
tp37
a(I10
I8
tp38
a(I11
I11
tp39
asS'len'
p40
(lp41
(I0
g13
tp42
a(I1
g13
tp43
a(I2
g13
tp44
a(I3
g13
tp45
a(I4
g13
tp46
a(I5
g13
tp47
a(I6
I150
tp48
a(I7
I150
tp49
a(I8
I150
tp50
a(I9
I150
tp51
a(I10
I150
tp52
a(I11
g13
tp53
asS'title'
p54
(lp55
(I0
g13
tp56
a(I1
g13
tp57
a(I2
g13
tp58
a(I3
g13
tp59
a(I4
g13
tp60
a(I5
g13
tp61
a(I6
VRespect
p62
tp63
a(I7
VRespect
p64
tp65
a(I8
VRespect
p66
tp67
a(I9
VRespect
p68
tp69
a(I10
VRespect
p70
tp71
a(I11
g13
tp72
asa(dp73
g11
(lp74
(I0
g13
tp75
a(I1
g13
tp76
a(I2
g13
tp77
a(I3
g13
tp78
a(I4
g13
tp79
a(I5
g13
tp80
a(I6
g13
tp81
a(I7
g13
tp82
a(I8
g13
tp83
a(I9
g13
tp84
a(I10
Ntp85
a(I11
g13
tp86
asg26
(lp87
(I0
I1
tp88
a(I1
I2
tp89
a(I2
I3
tp90
a(I3
I4
tp91
a(I4
I5
tp92
a(I5
I11
tp93
a(I6
I6
tp94
a(I7
I7
tp95
a(I8
I8
tp96
a(I9
I8
tp97
a(I10
I8
tp98
a(I11
I11
tp99
asg40
(lp100
(I0
g13
tp101
a(I1
g13
tp102
a(I2
g13
tp103
a(I3
g13
tp104
a(I4
g13
tp105
a(I5
g13
tp106
a(I6
I150
tp107
a(I7
I150
tp108
a(I8
I150
tp109
a(I9
I150
tp110
a(I10
I150
tp111
a(I11
g13
tp112
asg54
(lp113
(I0
g13
tp114
a(I1
g13
tp115
a(I2
g13
tp116
a(I3
g13
tp117
a(I4
g13
tp118
a(I5
g13
tp119
a(I6
VRespect
p120
tp121
a(I7
VRespect
p122
tp123
a(I8
VRespect
p124
tp125
a(I9
VRespect
p126
tp127
a(I10
VRespect
p128
tp129
a(I11
g13
tp130
asas.