(dp1
S'outputs'
p2
(lp3
S''
aS''
asS'testcases'
p4
(lp5
S'Song(\'Respect\',150).__str__(), "Respect, 150", "testing __str__ with Respect"'
p6
aS'Song(\'Truth Hurts\',183).__str__(), "Truth Hurts, 183", "testing __str__ with Truth Hurts"'
p7
asS'traces'
p8
(lp9
(dp10
S'__return__'
p11
(lp12
(I0
S'myNaN'
p13
tp14
a(I1
g13
tp15
a(I2
g13
tp16
a(I3
g13
tp17
a(I4
g13
tp18
a(I5
g13
tp19
a(I6
g13
tp20
a(I7
g13
tp21
a(I8
g13
tp22
a(I9
Ntp23
a(I10
g13
tp24
a(I11
g13
tp25
a(I12
g13
tp26
a(I13
Ntp27
a(I14
g13
tp28
asS'__lineNo__'
p29
(lp30
(I0
I1
tp31
a(I1
I2
tp32
a(I2
I3
tp33
a(I3
I4
tp34
a(I4
I5
tp35
a(I5
I13
tp36
a(I6
I6
tp37
a(I7
I7
tp38
a(I8
I8
tp39
a(I9
I8
tp40
a(I10
I9
tp41
a(I11
I10
tp42
a(I12
I10
tp43
a(I13
I10
tp44
a(I14
I13
tp45
asS'len'
p46
(lp47
(I0
g13
tp48
a(I1
g13
tp49
a(I2
g13
tp50
a(I3
g13
tp51
a(I4
g13
tp52
a(I5
g13
tp53
a(I6
I150
tp54
a(I7
I150
tp55
a(I8
I150
tp56
a(I9
I150
tp57
a(I10
g13
tp58
a(I11
g13
tp59
a(I12
g13
tp60
a(I13
g13
tp61
a(I14
g13
tp62
asS'title'
p63
(lp64
(I0
g13
tp65
a(I1
g13
tp66
a(I2
g13
tp67
a(I3
g13
tp68
a(I4
g13
tp69
a(I5
g13
tp70
a(I6
VRespect
tp71
a(I7
VRespect
tp72
a(I8
VRespect
tp73
a(I9
VRespect
tp74
a(I10
g13
tp75
a(I11
g13
tp76
a(I12
g13
tp77
a(I13
g13
tp78
a(I14
g13
tp79
asa(dp80
g11
(lp81
(I0
g13
tp82
a(I1
g13
tp83
a(I2
g13
tp84
a(I3
g13
tp85
a(I4
g13
tp86
a(I5
g13
tp87
a(I6
g13
tp88
a(I7
g13
tp89
a(I8
g13
tp90
a(I9
Ntp91
a(I10
g13
tp92
a(I11
g13
tp93
a(I12
g13
tp94
a(I13
Ntp95
a(I14
g13
tp96
asg29
(lp97
(I0
I1
tp98
a(I1
I2
tp99
a(I2
I3
tp100
a(I3
I4
tp101
a(I4
I5
tp102
a(I5
I13
tp103
a(I6
I6
tp104
a(I7
I7
tp105
a(I8
I8
tp106
a(I9
I8
tp107
a(I10
I9
tp108
a(I11
I10
tp109
a(I12
I10
tp110
a(I13
I10
tp111
a(I14
I13
tp112
asg46
(lp113
(I0
g13
tp114
a(I1
g13
tp115
a(I2
g13
tp116
a(I3
g13
tp117
a(I4
g13
tp118
a(I5
g13
tp119
a(I6
I183
tp120
a(I7
I183
tp121
a(I8
I183
tp122
a(I9
I183
tp123
a(I10
g13
tp124
a(I11
g13
tp125
a(I12
g13
tp126
a(I13
g13
tp127
a(I14
g13
tp128
asg63
(lp129
(I0
g13
tp130
a(I1
g13
tp131
a(I2
g13
tp132
a(I3
g13
tp133
a(I4
g13
tp134
a(I5
g13
tp135
a(I6
VTruth Hurts
p136
tp137
a(I7
VTruth Hurts
p138
tp139
a(I8
VTruth Hurts
p140
tp141
a(I9
VTruth Hurts
p142
tp143
a(I10
g13
tp144
a(I11
g13
tp145
a(I12
g13
tp146
a(I13
g13
tp147
a(I14
g13
tp148
asas.