(dp1
S'outputs'
p2
(lp3
S''
aS''
asS'testcases'
p4
(lp5
S'Song(\'Respect\',150).__str__(), "Respect, 150", "testing __str__ with Respect"'
p6
aS'Song(\'Truth Hurts\',183).__str__(), "Truth Hurts, 183", "testing __str__ with Truth Hurts"'
p7
asS'traces'
p8
(lp9
(dp10
S'__return__'
p11
(lp12
(I0
S'myNaN'
p13
tp14
a(I1
g13
tp15
a(I2
g13
tp16
a(I3
g13
tp17
a(I4
g13
tp18
a(I5
g13
tp19
a(I6
g13
tp20
a(I7
g13
tp21
a(I8
g13
tp22
a(I9
g13
tp23
a(I10
Ntp24
a(I11
g13
tp25
a(I12
g13
tp26
a(I13
g13
tp27
a(I14
g13
tp28
a(I15
Ntp29
a(I16
g13
tp30
asS'__lineNo__'
p31
(lp32
(I0
I1
tp33
a(I1
I2
tp34
a(I2
I3
tp35
a(I3
I4
tp36
a(I4
I5
tp37
a(I5
I9
tp38
a(I6
I11
tp39
a(I7
I6
tp40
a(I8
I7
tp41
a(I9
I8
tp42
a(I10
I8
tp43
a(I11
I14
tp44
a(I12
I6
tp45
a(I13
I7
tp46
a(I14
I8
tp47
a(I15
I8
tp48
a(I16
I14
tp49
asS'len'
p50
(lp51
(I0
g13
tp52
a(I1
g13
tp53
a(I2
g13
tp54
a(I3
g13
tp55
a(I4
g13
tp56
a(I5
g13
tp57
a(I6
g13
tp58
a(I7
I150
tp59
a(I8
I150
tp60
a(I9
I150
tp61
a(I10
I150
tp62
a(I11
g13
tp63
a(I12
I150
tp64
a(I13
I150
tp65
a(I14
I150
tp66
a(I15
I150
tp67
a(I16
g13
tp68
asS'title'
p69
(lp70
(I0
g13
tp71
a(I1
g13
tp72
a(I2
g13
tp73
a(I3
g13
tp74
a(I4
g13
tp75
a(I5
g13
tp76
a(I6
g13
tp77
a(I7
VRespect
p78
tp79
a(I8
VRespect
p80
tp81
a(I9
VRespect
p82
tp83
a(I10
VRespect
p84
tp85
a(I11
g13
tp86
a(I12
VRespect
p87
tp88
a(I13
VRespect
p89
tp90
a(I14
VRespect
p91
tp92
a(I15
VRespect
p93
tp94
a(I16
g13
tp95
asa(dp96
g11
(lp97
(I0
g13
tp98
a(I1
g13
tp99
a(I2
g13
tp100
a(I3
g13
tp101
a(I4
g13
tp102
a(I5
g13
tp103
a(I6
g13
tp104
a(I7
g13
tp105
a(I8
g13
tp106
a(I9
g13
tp107
a(I10
Ntp108
a(I11
g13
tp109
a(I12
g13
tp110
a(I13
g13
tp111
a(I14
g13
tp112
a(I15
Ntp113
a(I16
g13
tp114
asg31
(lp115
(I0
I1
tp116
a(I1
I2
tp117
a(I2
I3
tp118
a(I3
I4
tp119
a(I4
I5
tp120
a(I5
I9
tp121
a(I6
I11
tp122
a(I7
I6
tp123
a(I8
I7
tp124
a(I9
I8
tp125
a(I10
I8
tp126
a(I11
I14
tp127
a(I12
I6
tp128
a(I13
I7
tp129
a(I14
I8
tp130
a(I15
I8
tp131
a(I16
I14
tp132
asg50
(lp133
(I0
g13
tp134
a(I1
g13
tp135
a(I2
g13
tp136
a(I3
g13
tp137
a(I4
g13
tp138
a(I5
g13
tp139
a(I6
g13
tp140
a(I7
I150
tp141
a(I8
I150
tp142
a(I9
I150
tp143
a(I10
I150
tp144
a(I11
g13
tp145
a(I12
I183
tp146
a(I13
I183
tp147
a(I14
I183
tp148
a(I15
I183
tp149
a(I16
g13
tp150
asg69
(lp151
(I0
g13
tp152
a(I1
g13
tp153
a(I2
g13
tp154
a(I3
g13
tp155
a(I4
g13
tp156
a(I5
g13
tp157
a(I6
g13
tp158
a(I7
VRespect
p159
tp160
a(I8
VRespect
p161
tp162
a(I9
VRespect
p163
tp164
a(I10
VRespect
p165
tp166
a(I11
g13
tp167
a(I12
VTruth Hurts
p168
tp169
a(I13
VTruth Hurts
p170
tp171
a(I14
VTruth Hurts
p172
tp173
a(I15
VTruth Hurts
p174
tp175
a(I16
g13
tp176
asas.