(dp1
S'outputs'
p2
(lp3
VRespect, 150\u000a
p4
aVRespect, 150\u000a
p5
asS'testcases'
p6
(lp7
S'Song(\'Respect\',150).__str__(), "Respect, 150", "testing __str__ with Respect"'
p8
aS'Song(\'Truth Hurts\',183).__str__(), "Truth Hurts, 183", "testing __str__ with Truth Hurts"'
p9
asS'traces'
p10
(lp11
(dp12
S'__return__'
p13
(lp14
(I0
S'myNaN'
p15
tp16
a(I1
g15
tp17
a(I2
g15
tp18
a(I3
g15
tp19
a(I4
g15
tp20
a(I5
g15
tp21
a(I6
g15
tp22
a(I7
g15
tp23
a(I8
g15
tp24
a(I9
g15
tp25
a(I10
g15
tp26
a(I11
g15
tp27
a(I12
Ntp28
a(I13
g15
tp29
a(I14
g15
tp30
a(I15
g15
tp31
a(I16
VRespect, 150
p32
tp33
a(I17
Ntp34
a(I18
g15
tp35
a(I19
g15
tp36
a(I20
g15
tp37
a(I21
g15
tp38
a(I22
Ntp39
a(I23
g15
tp40
a(I24
g15
tp41
a(I25
VRespect, 150
p42
tp43
a(I26
g15
tp44
asS'__lineNo__'
p45
(lp46
(I0
I1
tp47
a(I1
I2
tp48
a(I2
I3
tp49
a(I3
I4
tp50
a(I4
I5
tp51
a(I5
I11
tp52
a(I6
I14
tp53
a(I7
I11
tp54
a(I8
I12
tp55
a(I9
I6
tp56
a(I10
I7
tp57
a(I11
I8
tp58
a(I12
I8
tp59
a(I13
I13
tp60
a(I14
I9
tp61
a(I15
I10
tp62
a(I16
I10
tp63
a(I17
I13
tp64
a(I18
I17
tp65
a(I19
I6
tp66
a(I20
I7
tp67
a(I21
I8
tp68
a(I22
I8
tp69
a(I23
I9
tp70
a(I24
I10
tp71
a(I25
I10
tp72
a(I26
I17
tp73
asS'len'
p74
(lp75
(I0
g15
tp76
a(I1
g15
tp77
a(I2
g15
tp78
a(I3
g15
tp79
a(I4
g15
tp80
a(I5
g15
tp81
a(I6
g15
tp82
a(I7
g15
tp83
a(I8
g15
tp84
a(I9
I150
tp85
a(I10
I150
tp86
a(I11
I150
tp87
a(I12
I150
tp88
a(I13
g15
tp89
a(I14
g15
tp90
a(I15
g15
tp91
a(I16
g15
tp92
a(I17
g15
tp93
a(I18
g15
tp94
a(I19
I150
tp95
a(I20
I150
tp96
a(I21
I150
tp97
a(I22
I150
tp98
a(I23
g15
tp99
a(I24
g15
tp100
a(I25
g15
tp101
a(I26
g15
tp102
asS'title'
p103
(lp104
(I0
g15
tp105
a(I1
g15
tp106
a(I2
g15
tp107
a(I3
g15
tp108
a(I4
g15
tp109
a(I5
g15
tp110
a(I6
g15
tp111
a(I7
g15
tp112
a(I8
g15
tp113
a(I9
VRespect
p114
tp115
a(I10
VRespect
p116
tp117
a(I11
VRespect
p118
tp119
a(I12
VRespect
p120
tp121
a(I13
g15
tp122
a(I14
g15
tp123
a(I15
g15
tp124
a(I16
g15
tp125
a(I17
g15
tp126
a(I18
g15
tp127
a(I19
VRespect
p128
tp129
a(I20
VRespect
p130
tp131
a(I21
VRespect
p132
tp133
a(I22
VRespect
p134
tp135
a(I23
g15
tp136
a(I24
g15
tp137
a(I25
g15
tp138
a(I26
g15
tp139
asa(dp140
g13
(lp141
(I0
g15
tp142
a(I1
g15
tp143
a(I2
g15
tp144
a(I3
g15
tp145
a(I4
g15
tp146
a(I5
g15
tp147
a(I6
g15
tp148
a(I7
g15
tp149
a(I8
g15
tp150
a(I9
g15
tp151
a(I10
g15
tp152
a(I11
g15
tp153
a(I12
Ntp154
a(I13
g15
tp155
a(I14
g15
tp156
a(I15
g15
tp157
a(I16
VRespect, 150
p158
tp159
a(I17
Ntp160
a(I18
g15
tp161
a(I19
g15
tp162
a(I20
g15
tp163
a(I21
g15
tp164
a(I22
Ntp165
a(I23
g15
tp166
a(I24
g15
tp167
a(I25
VTruth Hurts, 183
p168
tp169
a(I26
g15
tp170
asg45
(lp171
(I0
I1
tp172
a(I1
I2
tp173
a(I2
I3
tp174
a(I3
I4
tp175
a(I4
I5
tp176
a(I5
I11
tp177
a(I6
I14
tp178
a(I7
I11
tp179
a(I8
I12
tp180
a(I9
I6
tp181
a(I10
I7
tp182
a(I11
I8
tp183
a(I12
I8
tp184
a(I13
I13
tp185
a(I14
I9
tp186
a(I15
I10
tp187
a(I16
I10
tp188
a(I17
I13
tp189
a(I18
I17
tp190
a(I19
I6
tp191
a(I20
I7
tp192
a(I21
I8
tp193
a(I22
I8
tp194
a(I23
I9
tp195
a(I24
I10
tp196
a(I25
I10
tp197
a(I26
I17
tp198
asg74
(lp199
(I0
g15
tp200
a(I1
g15
tp201
a(I2
g15
tp202
a(I3
g15
tp203
a(I4
g15
tp204
a(I5
g15
tp205
a(I6
g15
tp206
a(I7
g15
tp207
a(I8
g15
tp208
a(I9
I150
tp209
a(I10
I150
tp210
a(I11
I150
tp211
a(I12
I150
tp212
a(I13
g15
tp213
a(I14
g15
tp214
a(I15
g15
tp215
a(I16
g15
tp216
a(I17
g15
tp217
a(I18
g15
tp218
a(I19
I183
tp219
a(I20
I183
tp220
a(I21
I183
tp221
a(I22
I183
tp222
a(I23
g15
tp223
a(I24
g15
tp224
a(I25
g15
tp225
a(I26
g15
tp226
asg103
(lp227
(I0
g15
tp228
a(I1
g15
tp229
a(I2
g15
tp230
a(I3
g15
tp231
a(I4
g15
tp232
a(I5
g15
tp233
a(I6
g15
tp234
a(I7
g15
tp235
a(I8
g15
tp236
a(I9
VRespect
p237
tp238
a(I10
VRespect
p239
tp240
a(I11
VRespect
p241
tp242
a(I12
VRespect
p243
tp244
a(I13
g15
tp245
a(I14
g15
tp246
a(I15
g15
tp247
a(I16
g15
tp248
a(I17
g15
tp249
a(I18
g15
tp250
a(I19
VTruth Hurts
p251
tp252
a(I20
VTruth Hurts
p253
tp254
a(I21
VTruth Hurts
p255
tp256
a(I22
VTruth Hurts
p257
tp258
a(I23
g15
tp259
a(I24
g15
tp260
a(I25
g15
tp261
a(I26
g15
tp262
asas.